 ErrorReportd

 Timestamp is 539190b1 (Fri Jun 06 17:58:09 2014)

 Preferred load address is 10000000

 Start         Length     Name                   Class
 0001:00000000 0001d542H .textbss                DATA
 0002:00000000 0003a1d9H .text                   CODE
 0002:0003a1e0 00004438H .text$x                 CODE
 0002:0003e620 00002257H .text$yc                CODE
 0002:00040880 0000132bH .text$yd                CODE
 0003:00000000 00000104H .CRT$XCA                DATA
 0003:00000104 0000010eH .CRT$XCC                DATA
 0003:00000214 00000186H .CRT$XCL                DATA
 0003:0000039c 00000132H .CRT$XCU                DATA
 0003:000004d0 00000104H .CRT$XCZ                DATA
 0003:000005d4 00000104H .CRT$XIA                DATA
 0003:000006d8 00000104H .CRT$XIAA               DATA
 0003:000007dc 00000104H .CRT$XIZ                DATA
 0003:000008e0 00007bf1H .rdata                  DATA
 0003:000084d4 00000155H .rdata$debug            DATA
 0003:0000862c 00000bfbH .rdata$r                DATA
 0003:00009228 00000104H .rtc$IAA                DATA
 0003:0000932c 00000104H .rtc$IMZ                DATA
 0003:00009430 00000104H .rtc$IZZ                DATA
 0003:00009534 00000104H .rtc$TAA                DATA
 0003:00009638 00000104H .rtc$TMZ                DATA
 0003:0000973c 00000104H .rtc$TZZ                DATA
 0003:00009840 00002c5eH .xdata$x                DATA
 0003:0000c4a0 00000104H ATL$__a                 DATA
 0003:0000c5a4 00000104H ATL$__z                 DATA
 0003:0000c6b0 00000264H .edata                  DATA
 0004:00000000 000009f7H .data                   DATA
 0004:000009f8 00000efcH .bss                    DATA
 0005:00000000 00000118H .idata$2                DATA
 0005:00000118 00000014H .idata$3                DATA
 0005:0000012c 00000b64H .idata$4                DATA
 0005:00000c90 00000b64H .idata$5                DATA
 0005:000017f4 000019c2H .idata$6                DATA
 0006:00000000 000003c6H .rsrc$01                DATA
 0006:000003d0 0000431cH .rsrc$02                DATA

  Address         Publics by Value              Rva+Base       Lib:Object

 0000:00000000       ___safe_se_handler_table   00000000     <absolute>
 0000:00000000       ___safe_se_handler_count   00000000     <absolute>
 0000:00000000       ___ImageBase               10000000     <linker-defined>
 0001:00000000       __enc$textbss$begin        10001000     <linker-defined>
 0001:0001d542       __enc$textbss$end          1001e542     <linker-defined>
 0002:00003a00       ?_AfxInitManaged@@YAHXZ    10022a00 f i AppOctetStream.obj
 0002:00003a30       ??0CAppOctetStream@@QAE@H@Z 10022a30 f   AppOctetStream.obj
 0002:00003aa0       ??_ECAppOctetStream@@UAEPAXI@Z 10022aa0 f i AppOctetStream.obj
 0002:00003aa0       ??_GCAppOctetStream@@UAEPAXI@Z 10022aa0 f i AppOctetStream.obj
 0002:00003b10       ??1CAppOctetStream@@UAE@XZ 10022b10 f   AppOctetStream.obj
 0002:00003b70       ?AppendPart@CAppOctetStream@@UAEHPBD0HHAAV?$CStringT@DV?$StrTraitMFC_DLL@DV?$ChTraitsCRT@D@ATL@@@@@ATL@@@Z 10022b70 f   AppOctetStream.obj
 0002:00003dd0       ?build_sub_header@CAppOctetStream@@MAE?AV?$CStringT@DV?$StrTraitMFC_DLL@DV?$ChTraitsCRT@D@ATL@@@@@ATL@@PBD0HH@Z 10022dd0 f   AppOctetStream.obj
 0002:00004160       ?GetContentTypeString@CAppOctetStream@@UAE?AV?$CStringT@DV?$StrTraitMFC_DLL@DV?$ChTraitsCRT@D@ATL@@@@@ATL@@XZ 10023160 f   AppOctetStream.obj
 0002:000042b0       ?attach_file@CAppOctetStream@@MAEXPAVCStdioFile@@HAAV?$CStringT@DV?$StrTraitMFC_DLL@DV?$ChTraitsCRT@D@ATL@@@@@ATL@@@Z 100232b0 f   AppOctetStream.obj
 0002:00004730       ??0Thank_you@Define_the_symbol__ATL_MIXED@@QAE@XZ 10023730 f i AppOctetStream.obj
 0002:00004780       ?one@Thank_you@Define_the_symbol__ATL_MIXED@@UAEXXZ 10023780 f i AppOctetStream.obj
 0002:000047c0       ??0CBase64@@QAE@XZ         100237c0 f   Base64.obj
 0002:00004820       ??_ECBase64@@UAEPAXI@Z     10023820 f i Base64.obj
 0002:00004820       ??_GCBase64@@UAEPAXI@Z     10023820 f i Base64.obj
 0002:00004890       ??1CBase64@@UAE@XZ         10023890 f   Base64.obj
 0002:000048f0       ?Encode@CBase64@@UAE?AV?$CStringT@DV?$StrTraitMFC_DLL@DV?$ChTraitsCRT@D@ATL@@@@@ATL@@PBDH@Z 100238f0 f   Base64.obj
 0002:00004be0       ?Decode@CBase64@@UAEHPBDPAD@Z 10023be0 f   Base64.obj
 0002:00005090       ?read_bits@CBase64@@IAEIHPAHAAH@Z 10024090 f   Base64.obj
 0002:000051e0       ?write_bits@CBase64@@IAEXIHPADAAH@Z 100241e0 f   Base64.obj
 0002:000052b0       ?SetLoginAccountInfo@@YAXI@Z 100242b0 f   CrashHandler.obj
 0002:000052f0       ?SetDumpVecAddr@@YAXPAX0@Z 100242f0 f   CrashHandler.obj
 0002:00005340       ?SetFlashVersion@@YAXI@Z   10024340 f   CrashHandler.obj
 0002:00005380       ?GetVersionString@@YA?AV?$CStringT@DV?$StrTraitMFC_DLL@DV?$ChTraitsCRT@D@ATL@@@@@ATL@@XZ 10024380 f   CrashHandler.obj
 0002:00005630       ?MicrosecondsToFileTime@@YAX_JPAU_FILETIME@@@Z 10024630 f   CrashHandler.obj
 0002:000056d0       ?Explode@@YAXAB_JPAUExploded@Time@@@Z 100246d0 f   CrashHandler.obj
 0002:00005870       ?DumpStamp@@YAXPAXAAV?$basic_string@DU?$char_traits@D@std@@V?$allocator@D@2@@std@@@Z 10024870 f   CrashHandler.obj
 0002:00005c60       ?hex@std@@YAAAVios_base@1@AAV21@@Z 10024c60 f i CrashHandler.obj
 0002:00005cd0       ??1?$_Iterator@$00@?$list@VDumpNode@@V?$allocator@VDumpNode@@@std@@@std@@QAE@XZ 10024cd0 f i CrashHandler.obj
 0002:00005d20       ??1?$_Const_iterator@$00@?$list@VDumpNode@@V?$allocator@VDumpNode@@@std@@@std@@QAE@XZ 10024d20 f i CrashHandler.obj
 0002:00005d70       ??1?$_Bidit@VDumpNode@@HPBV1@ABV1@@std@@QAE@XZ 10024d70 f i CrashHandler.obj
 0002:00005dc0       ??1?$_Iterator_with_base@Ubidirectional_iterator_tag@std@@VDumpNode@@HPBV3@ABV3@V_Iterator_base@2@@std@@QAE@XZ 10024dc0 f i CrashHandler.obj
 0002:00005e10       ??1_Iterator_base@std@@QAE@XZ 10024e10 f i CrashHandler.obj
 0002:00005f10       ?_Orphan_me@_Iterator_base@std@@QAEXXZ 10024f10 f i CrashHandler.obj
 0002:00005ff0       ?CustomUnhandledExceptionFilter@@YGJPAU_EXCEPTION_POINTERS@@@Z 10024ff0 f   CrashHandler.obj
 0002:00006080       ??0CCrashHandler@@QAE@PBD000@Z 10025080 f   CrashHandler.obj
 0002:00006320       ??_GCCrashHandler@@UAEPAXI@Z 10025320 f i CrashHandler.obj
 0002:00006320       ??_ECCrashHandler@@UAEPAXI@Z 10025320 f i CrashHandler.obj
 0002:00006390       ??1?$map@V?$CStringT@DV?$StrTraitMFC_DLL@DV?$ChTraitsCRT@D@ATL@@@@@ATL@@V12@U?$less@V?$CStringT@DV?$StrTraitMFC_DLL@DV?$ChTraitsCRT@D@ATL@@@@@ATL@@@std@@V?$allocator@U?$pair@$$CBV?$CStringT@DV?$StrTraitMFC_DLL@DV?$ChTraitsCRT@D@ATL@@@@@ATL@@V12@@std@@@4@@std@@QAE@XZ 10025390 f i CrashHandler.obj
 0002:000063e0       ??1CCrashHandler@@UAE@XZ   100253e0 f   CrashHandler.obj
 0002:00006540       ?AddFile@CCrashHandler@@QAEXPBD0@Z 10025540 f   CrashHandler.obj
 0002:00006690       ?GetIEVersionImply@@YA?AV?$basic_string@DU?$char_traits@D@std@@V?$allocator@D@2@@std@@XZ 10025690 f   CrashHandler.obj
 0002:00006890       ??0CRegKey@ATL@@QAE@XZ     10025890 f i CrashHandler.obj
 0002:000068e0       ??1CRegKey@ATL@@QAE@XZ     100258e0 f i CrashHandler.obj
 0002:00006930       ?Close@CRegKey@ATL@@QAEJXZ 10025930 f i CrashHandler.obj
 0002:000069d0       ?Open@CRegKey@ATL@@QAEJPAUHKEY__@@PBDK@Z 100259d0 f i CrashHandler.obj
 0002:00006b40       ?QueryStringValue@CRegKey@ATL@@QAEJPBDPADPAK@Z 10025b40 f i CrashHandler.obj
 0002:00006d30       ?GetTempFile@CCrashHandler@@IAE?AV?$CStringT@DV?$StrTraitMFC_DLL@DV?$ChTraitsCRT@D@ATL@@@@@ATL@@XZ 10025d30 f   CrashHandler.obj
 0002:00007150       ?GetOsVersion@@YAHAAKPAK11PADH@Z 10026150 f   CrashHandler.obj
 0002:000072d0       ?GenerateErrorReport@CCrashHandler@@QAEXPAU_EXCEPTION_POINTERS@@@Z 100262d0 f   CrashHandler.obj
 0002:000085e0       ??1CExceptionReport@@QAE@XZ 100275e0 f i CrashHandler.obj
 0002:00008640       ??1iterator@?$_Tree@V?$_Tmap_traits@V?$CStringT@DV?$StrTraitMFC_DLL@DV?$ChTraitsCRT@D@ATL@@@@@ATL@@V12@U?$less@V?$CStringT@DV?$StrTraitMFC_DLL@DV?$ChTraitsCRT@D@ATL@@@@@ATL@@@std@@V?$allocator@U?$pair@$$CBV?$CStringT@DV?$StrTraitMFC_DLL@DV?$ChTraitsCRT@D@ATL@@@@@ATL@@V12@@std@@@4@$0A@@std@@@std@@QAE@XZ 10027640 f i CrashHandler.obj
 0002:00008690       ??1const_iterator@?$_Tree@V?$_Tmap_traits@V?$CStringT@DV?$StrTraitMFC_DLL@DV?$ChTraitsCRT@D@ATL@@@@@ATL@@V12@U?$less@V?$CStringT@DV?$StrTraitMFC_DLL@DV?$ChTraitsCRT@D@ATL@@@@@ATL@@@std@@V?$allocator@U?$pair@$$CBV?$CStringT@DV?$StrTraitMFC_DLL@DV?$ChTraitsCRT@D@ATL@@@@@ATL@@V12@@std@@@4@$0A@@std@@@std@@QAE@XZ 10027690 f i CrashHandler.obj
 0002:000086e0       ??1?$_Bidit@U?$pair@$$CBV?$CStringT@DV?$StrTraitMFC_DLL@DV?$ChTraitsCRT@D@ATL@@@@@ATL@@V12@@std@@HPBU12@ABU12@@std@@QAE@XZ 100276e0 f i CrashHandler.obj
 0002:00008730       ??1?$_Iterator_with_base@Ubidirectional_iterator_tag@std@@U?$pair@$$CBV?$CStringT@DV?$StrTraitMFC_DLL@DV?$ChTraitsCRT@D@ATL@@@@@ATL@@V12@@2@HPBU32@ABU32@V_Iterator_base@2@@std@@QAE@XZ 10027730 f i CrashHandler.obj
 0002:00008780       ?SaveReport@CCrashHandler@@IAEHAAVCExceptionReport@@PBD@Z 10027780 f   CrashHandler.obj
 0002:00008840       ?MailReport@CCrashHandler@@IAEHAAVCExceptionReport@@PBD11@Z 10027840 f   CrashHandler.obj
 0002:00008880       ?SendReportMail@@YAHPBD0000@Z 10027880 f   CrashHandler.obj
 0002:000088c0       ?CallUserCallback@CCrashHandler@@QAEXH@Z 100278c0 f   CrashHandler.obj
 0002:000089a0       ??0_Has_debug_it@?$basic_string@DU?$char_traits@D@std@@V?$allocator@D@2@@std@@QAE@_N@Z 100279a0 f i CrashHandler.obj
 0002:000089f0       ??0?$map@V?$CStringT@DV?$StrTraitMFC_DLL@DV?$ChTraitsCRT@D@ATL@@@@@ATL@@V12@U?$less@V?$CStringT@DV?$StrTraitMFC_DLL@DV?$ChTraitsCRT@D@ATL@@@@@ATL@@@std@@V?$allocator@U?$pair@$$CBV?$CStringT@DV?$StrTraitMFC_DLL@DV?$ChTraitsCRT@D@ATL@@@@@ATL@@V12@@std@@@4@@std@@QAE@XZ 100279f0 f i CrashHandler.obj
 0002:00008a60       ??A?$map@V?$CStringT@DV?$StrTraitMFC_DLL@DV?$ChTraitsCRT@D@ATL@@@@@ATL@@V12@U?$less@V?$CStringT@DV?$StrTraitMFC_DLL@DV?$ChTraitsCRT@D@ATL@@@@@ATL@@@std@@V?$allocator@U?$pair@$$CBV?$CStringT@DV?$StrTraitMFC_DLL@DV?$ChTraitsCRT@D@ATL@@@@@ATL@@V12@@std@@@4@@std@@QAEAAV?$CStringT@DV?$StrTraitMFC_DLL@DV?$ChTraitsCRT@D@ATL@@@@@ATL@@ABV23@@Z 10027a60 f i CrashHandler.obj
 0002:00008d90       ??1?$_Tree@V?$_Tmap_traits@V?$CStringT@DV?$StrTraitMFC_DLL@DV?$ChTraitsCRT@D@ATL@@@@@ATL@@V12@U?$less@V?$CStringT@DV?$StrTraitMFC_DLL@DV?$ChTraitsCRT@D@ATL@@@@@ATL@@@std@@V?$allocator@U?$pair@$$CBV?$CStringT@DV?$StrTraitMFC_DLL@DV?$ChTraitsCRT@D@ATL@@@@@ATL@@V12@@std@@@4@$0A@@std@@@std@@QAE@XZ 10027d90 f i CrashHandler.obj
 0002:00008e30       ?begin@?$_Tree@V?$_Tmap_traits@V?$CStringT@DV?$StrTraitMFC_DLL@DV?$ChTraitsCRT@D@ATL@@@@@ATL@@V12@U?$less@V?$CStringT@DV?$StrTraitMFC_DLL@DV?$ChTraitsCRT@D@ATL@@@@@ATL@@@std@@V?$allocator@U?$pair@$$CBV?$CStringT@DV?$StrTraitMFC_DLL@DV?$ChTraitsCRT@D@ATL@@@@@ATL@@V12@@std@@@4@$0A@@std@@@std@@QAE?AViterator@12@XZ 10027e30 f i CrashHandler.obj
 0002:00008ec0       ?size@?$_Tree@V?$_Tmap_traits@V?$CStringT@DV?$StrTraitMFC_DLL@DV?$ChTraitsCRT@D@ATL@@@@@ATL@@V12@U?$less@V?$CStringT@DV?$StrTraitMFC_DLL@DV?$ChTraitsCRT@D@ATL@@@@@ATL@@@std@@V?$allocator@U?$pair@$$CBV?$CStringT@DV?$StrTraitMFC_DLL@DV?$ChTraitsCRT@D@ATL@@@@@ATL@@V12@@std@@@4@$0A@@std@@@std@@QBEIXZ 10027ec0 f i CrashHandler.obj
 0002:00008f00       ?Add@?$CSimpleMap@HPAVCCrashHandler@@V?$CSimpleMapEqualHelper@HPAVCCrashHandler@@@ATL@@@ATL@@QAEHABHABQAVCCrashHandler@@@Z 10027f00 f i CrashHandler.obj
 0002:00009010       ?Remove@?$CSimpleMap@HPAVCCrashHandler@@V?$CSimpleMapEqualHelper@HPAVCCrashHandler@@@ATL@@@ATL@@QAEHABH@Z 10028010 f i CrashHandler.obj
 0002:00009090       ?Lookup@?$CSimpleMap@HPAVCCrashHandler@@V?$CSimpleMapEqualHelper@HPAVCCrashHandler@@@ATL@@@ATL@@QBEPAVCCrashHandler@@ABH@Z 10028090 f i CrashHandler.obj
 0002:00009110       ?begin@?$list@VDumpNode@@V?$allocator@VDumpNode@@@std@@@std@@QAE?AV?$_Iterator@$00@12@XZ 10028110 f i CrashHandler.obj
 0002:000091a0       ?end@?$list@VDumpNode@@V?$allocator@VDumpNode@@@std@@@std@@QAE?AV?$_Iterator@$00@12@XZ 100281a0 f i CrashHandler.obj
 0002:00009230       ??D?$_Iterator@$00@?$list@VDumpNode@@V?$allocator@VDumpNode@@@std@@@std@@QBEAAVDumpNode@@XZ 10028230 f i CrashHandler.obj
 0002:00009280       ??E?$_Iterator@$00@?$list@VDumpNode@@V?$allocator@VDumpNode@@@std@@@std@@QAEAAV012@XZ 10028280 f i CrashHandler.obj
 0002:000092e0       ??9?$_Const_iterator@$00@?$list@VDumpNode@@V?$allocator@VDumpNode@@@std@@@std@@QBE_NABV012@@Z 100282e0 f i CrashHandler.obj
 0002:00009350       ??Diterator@?$_Tree@V?$_Tmap_traits@V?$CStringT@DV?$StrTraitMFC_DLL@DV?$ChTraitsCRT@D@ATL@@@@@ATL@@V12@U?$less@V?$CStringT@DV?$StrTraitMFC_DLL@DV?$ChTraitsCRT@D@ATL@@@@@ATL@@@std@@V?$allocator@U?$pair@$$CBV?$CStringT@DV?$StrTraitMFC_DLL@DV?$ChTraitsCRT@D@ATL@@@@@ATL@@V12@@std@@@4@$0A@@std@@@std@@QBEAAU?$pair@$$CBV?$CStringT@DV?$StrTraitMFC_DLL@DV?$ChTraitsCRT@D@ATL@@@@@ATL@@V12@@2@XZ 10028350 f i CrashHandler.obj
 0002:000093a0       ??Eiterator@?$_Tree@V?$_Tmap_traits@V?$CStringT@DV?$StrTraitMFC_DLL@DV?$ChTraitsCRT@D@ATL@@@@@ATL@@V12@U?$less@V?$CStringT@DV?$StrTraitMFC_DLL@DV?$ChTraitsCRT@D@ATL@@@@@ATL@@@std@@V?$allocator@U?$pair@$$CBV?$CStringT@DV?$StrTraitMFC_DLL@DV?$ChTraitsCRT@D@ATL@@@@@ATL@@V12@@std@@@4@$0A@@std@@@std@@QAE?AV012@H@Z 100283a0 f i CrashHandler.obj
 0002:000094c0       ??1?$pair@$$CBV?$CStringT@DV?$StrTraitMFC_DLL@DV?$ChTraitsCRT@D@ATL@@@@@ATL@@V12@@std@@QAE@XZ 100284c0 f i CrashHandler.obj
 0002:00009540       ??0const_iterator@?$_Tree@V?$_Tmap_traits@V?$CStringT@DV?$StrTraitMFC_DLL@DV?$ChTraitsCRT@D@ATL@@@@@ATL@@V12@U?$less@V?$CStringT@DV?$StrTraitMFC_DLL@DV?$ChTraitsCRT@D@ATL@@@@@ATL@@@std@@V?$allocator@U?$pair@$$CBV?$CStringT@DV?$StrTraitMFC_DLL@DV?$ChTraitsCRT@D@ATL@@@@@ATL@@V12@@std@@@4@$0A@@std@@@std@@QAE@ABV012@@Z 10028540 f i CrashHandler.obj
 0002:000095b0       ??4iterator@?$_Tree@V?$_Tmap_traits@V?$CStringT@DV?$StrTraitMFC_DLL@DV?$ChTraitsCRT@D@ATL@@@@@ATL@@V12@U?$less@V?$CStringT@DV?$StrTraitMFC_DLL@DV?$ChTraitsCRT@D@ATL@@@@@ATL@@@std@@V?$allocator@U?$pair@$$CBV?$CStringT@DV?$StrTraitMFC_DLL@DV?$ChTraitsCRT@D@ATL@@@@@ATL@@V12@@std@@@4@$0A@@std@@@std@@QAEAAV012@ABV012@@Z 100285b0 f i CrashHandler.obj
 0002:00009610       ??1?$_Tree_val@V?$_Tmap_traits@V?$CStringT@DV?$StrTraitMFC_DLL@DV?$ChTraitsCRT@D@ATL@@@@@ATL@@V12@U?$less@V?$CStringT@DV?$StrTraitMFC_DLL@DV?$ChTraitsCRT@D@ATL@@@@@ATL@@@std@@V?$allocator@U?$pair@$$CBV?$CStringT@DV?$StrTraitMFC_DLL@DV?$ChTraitsCRT@D@ATL@@@@@ATL@@V12@@std@@@4@$0A@@std@@@std@@QAE@XZ 10028610 f i CrashHandler.obj
 0002:00009660       ??0iterator@?$_Tree@V?$_Tmap_traits@V?$CStringT@DV?$StrTraitMFC_DLL@DV?$ChTraitsCRT@D@ATL@@@@@ATL@@V12@U?$less@V?$CStringT@DV?$StrTraitMFC_DLL@DV?$ChTraitsCRT@D@ATL@@@@@ATL@@@std@@V?$allocator@U?$pair@$$CBV?$CStringT@DV?$StrTraitMFC_DLL@DV?$ChTraitsCRT@D@ATL@@@@@ATL@@V12@@std@@@4@$0A@@std@@@std@@QAE@ABV012@@Z 10028660 f i CrashHandler.obj
 0002:000096c0       ??0?$_Bidit@U?$pair@$$CBV?$CStringT@DV?$StrTraitMFC_DLL@DV?$ChTraitsCRT@D@ATL@@@@@ATL@@V12@@std@@HPBU12@ABU12@@std@@QAE@ABU01@@Z 100286c0 f i CrashHandler.obj
 0002:00009720       ??4const_iterator@?$_Tree@V?$_Tmap_traits@V?$CStringT@DV?$StrTraitMFC_DLL@DV?$ChTraitsCRT@D@ATL@@@@@ATL@@V12@U?$less@V?$CStringT@DV?$StrTraitMFC_DLL@DV?$ChTraitsCRT@D@ATL@@@@@ATL@@@std@@V?$allocator@U?$pair@$$CBV?$CStringT@DV?$StrTraitMFC_DLL@DV?$ChTraitsCRT@D@ATL@@@@@ATL@@V12@@std@@@4@$0A@@std@@@std@@QAEAAV012@ABV012@@Z 10028720 f i CrashHandler.obj
 0002:00009790       ??1?$_Tree_ptr@V?$_Tmap_traits@V?$CStringT@DV?$StrTraitMFC_DLL@DV?$ChTraitsCRT@D@ATL@@@@@ATL@@V12@U?$less@V?$CStringT@DV?$StrTraitMFC_DLL@DV?$ChTraitsCRT@D@ATL@@@@@ATL@@@std@@V?$allocator@U?$pair@$$CBV?$CStringT@DV?$StrTraitMFC_DLL@DV?$ChTraitsCRT@D@ATL@@@@@ATL@@V12@@std@@@4@$0A@@std@@@std@@QAE@XZ 10028790 f i CrashHandler.obj
 0002:000097e0       ??0?$_Iterator_with_base@Ubidirectional_iterator_tag@std@@U?$pair@$$CBV?$CStringT@DV?$StrTraitMFC_DLL@DV?$ChTraitsCRT@D@ATL@@@@@ATL@@V12@@2@HPBU32@ABU32@V_Iterator_base@2@@std@@QAE@ABU01@@Z 100287e0 f i CrashHandler.obj
 0002:00009840       ??0_Iterator_base@std@@QAE@ABV01@@Z 10028840 f i CrashHandler.obj
 0002:000098c0       ??4_Iterator_base@std@@QAEAAV01@ABV01@@Z 100288c0 f i CrashHandler.obj
 0002:000099f0       ?_Adopt@_Iterator_base@std@@QAEXPBV_Container_base_secure@2@@Z 100289f0 f i CrashHandler.obj
 0002:00009b30       ??4?$_Bidit@U?$pair@$$CBV?$CStringT@DV?$StrTraitMFC_DLL@DV?$ChTraitsCRT@D@ATL@@@@@ATL@@V12@@std@@HPBU12@ABU12@@std@@QAEAAU01@ABU01@@Z 10028b30 f i CrashHandler.obj
 0002:00009b90       ??1?$_Tree_nod@V?$_Tmap_traits@V?$CStringT@DV?$StrTraitMFC_DLL@DV?$ChTraitsCRT@D@ATL@@@@@ATL@@V12@U?$less@V?$CStringT@DV?$StrTraitMFC_DLL@DV?$ChTraitsCRT@D@ATL@@@@@ATL@@@std@@V?$allocator@U?$pair@$$CBV?$CStringT@DV?$StrTraitMFC_DLL@DV?$ChTraitsCRT@D@ATL@@@@@ATL@@V12@@std@@@4@$0A@@std@@@std@@QAE@XZ 10028b90 f i CrashHandler.obj
 0002:00009be0       ??4?$_Iterator_with_base@Ubidirectional_iterator_tag@std@@U?$pair@$$CBV?$CStringT@DV?$StrTraitMFC_DLL@DV?$ChTraitsCRT@D@ATL@@@@@ATL@@V12@@2@HPBU32@ABU32@V_Iterator_base@2@@std@@QAEAAU01@ABU01@@Z 10028be0 f i CrashHandler.obj
 0002:00009c40       ??1?$_Tmap_traits@V?$CStringT@DV?$StrTraitMFC_DLL@DV?$ChTraitsCRT@D@ATL@@@@@ATL@@V12@U?$less@V?$CStringT@DV?$StrTraitMFC_DLL@DV?$ChTraitsCRT@D@ATL@@@@@ATL@@@std@@V?$allocator@U?$pair@$$CBV?$CStringT@DV?$StrTraitMFC_DLL@DV?$ChTraitsCRT@D@ATL@@@@@ATL@@V12@@std@@@4@$0A@@std@@QAE@XZ 10028c40 f i CrashHandler.obj
 0002:00009c90       ?_Key@?$_Tree@V?$_Tmap_traits@V?$CStringT@DV?$StrTraitMFC_DLL@DV?$ChTraitsCRT@D@ATL@@@@@ATL@@V12@U?$less@V?$CStringT@DV?$StrTraitMFC_DLL@DV?$ChTraitsCRT@D@ATL@@@@@ATL@@@std@@V?$allocator@U?$pair@$$CBV?$CStringT@DV?$StrTraitMFC_DLL@DV?$ChTraitsCRT@D@ATL@@@@@ATL@@V12@@std@@@4@$0A@@std@@@std@@KAABV?$CStringT@DV?$StrTraitMFC_DLL@DV?$ChTraitsCRT@D@ATL@@@@@ATL@@PAU_Node@?$_Tree_nod@V?$_Tmap_traits@V?$CStringT@DV?$StrTraitMFC_DLL@DV?$ChTraitsCRT@D@ATL@@@@@ATL@@V12@U?$less@V?$CStringT@DV?$StrTraitMFC_DLL@DV?$ChTraitsCRT@D@ATL@@@@@ATL@@@std@@V?$allocator@U?$pair@$$CBV?$CStringT@DV?$StrTraitMFC_DLL@DV?$ChTraitsCRT@D@ATL@@@@@ATL@@V12@@std@@@4@$0A@@std@@@2@@Z 10028c90 f i CrashHandler.obj
 0002:00009cf0       ??0?$_Tree@V?$_Tmap_traits@V?$CStringT@DV?$StrTraitMFC_DLL@DV?$ChTraitsCRT@D@ATL@@@@@ATL@@V12@U?$less@V?$CStringT@DV?$StrTraitMFC_DLL@DV?$ChTraitsCRT@D@ATL@@@@@ATL@@@std@@V?$allocator@U?$pair@$$CBV?$CStringT@DV?$StrTraitMFC_DLL@DV?$ChTraitsCRT@D@ATL@@@@@ATL@@V12@@std@@@4@$0A@@std@@@std@@QAE@ABU?$less@V?$CStringT@DV?$StrTraitMFC_DLL@DV?$ChTraitsCRT@D@ATL@@@@@ATL@@@1@ABV?$allocator@U?$pair@$$CBV?$CStringT@DV?$StrTraitMFC_DLL@DV?$ChTraitsCRT@D@ATL@@@@@ATL@@V12@@std@@@1@@Z 10028cf0 f i CrashHandler.obj
 0002:00009db0       ?end@?$_Tree@V?$_Tmap_traits@V?$CStringT@DV?$StrTraitMFC_DLL@DV?$ChTraitsCRT@D@ATL@@@@@ATL@@V12@U?$less@V?$CStringT@DV?$StrTraitMFC_DLL@DV?$ChTraitsCRT@D@ATL@@@@@ATL@@@std@@V?$allocator@U?$pair@$$CBV?$CStringT@DV?$StrTraitMFC_DLL@DV?$ChTraitsCRT@D@ATL@@@@@ATL@@V12@@std@@@4@$0A@@std@@@std@@QAE?AViterator@12@XZ 10028db0 f i CrashHandler.obj
 0002:00009e40       ?insert@?$_Tree@V?$_Tmap_traits@V?$CStringT@DV?$StrTraitMFC_DLL@DV?$ChTraitsCRT@D@ATL@@@@@ATL@@V12@U?$less@V?$CStringT@DV?$StrTraitMFC_DLL@DV?$ChTraitsCRT@D@ATL@@@@@ATL@@@std@@V?$allocator@U?$pair@$$CBV?$CStringT@DV?$StrTraitMFC_DLL@DV?$ChTraitsCRT@D@ATL@@@@@ATL@@V12@@std@@@4@$0A@@std@@@std@@QAE?AViterator@12@Vconst_iterator@12@ABU?$pair@$$CBV?$CStringT@DV?$StrTraitMFC_DLL@DV?$ChTraitsCRT@D@ATL@@@@@ATL@@V12@@2@@Z 10028e40 f i CrashHandler.obj
 0002:0000ad10       ?lower_bound@?$_Tree@V?$_Tmap_traits@V?$CStringT@DV?$StrTraitMFC_DLL@DV?$ChTraitsCRT@D@ATL@@@@@ATL@@V12@U?$less@V?$CStringT@DV?$StrTraitMFC_DLL@DV?$ChTraitsCRT@D@ATL@@@@@ATL@@@std@@V?$allocator@U?$pair@$$CBV?$CStringT@DV?$StrTraitMFC_DLL@DV?$ChTraitsCRT@D@ATL@@@@@ATL@@V12@@std@@@4@$0A@@std@@@std@@QAE?AViterator@12@ABV?$CStringT@DV?$StrTraitMFC_DLL@DV?$ChTraitsCRT@D@ATL@@@@@ATL@@@Z 10029d10 f i CrashHandler.obj
 0002:0000ada0       ?_Lmost@?$_Tree@V?$_Tmap_traits@V?$CStringT@DV?$StrTraitMFC_DLL@DV?$ChTraitsCRT@D@ATL@@@@@ATL@@V12@U?$less@V?$CStringT@DV?$StrTraitMFC_DLL@DV?$ChTraitsCRT@D@ATL@@@@@ATL@@@std@@V?$allocator@U?$pair@$$CBV?$CStringT@DV?$StrTraitMFC_DLL@DV?$ChTraitsCRT@D@ATL@@@@@ATL@@V12@@std@@@4@$0A@@std@@@std@@IBEAAPAU_Node@?$_Tree_nod@V?$_Tmap_traits@V?$CStringT@DV?$StrTraitMFC_DLL@DV?$ChTraitsCRT@D@ATL@@@@@ATL@@V12@U?$less@V?$CStringT@DV?$StrTraitMFC_DLL@DV?$ChTraitsCRT@D@ATL@@@@@ATL@@@std@@V?$allocator@U?$pair@$$CBV?$CStringT@DV?$StrTraitMFC_DLL@DV?$ChTraitsCRT@D@ATL@@@@@ATL@@V12@@std@@@4@$0A@@std@@@2@XZ 10029da0 f i CrashHandler.obj
 0002:0000ae00       ?_Tidy@?$_Tree@V?$_Tmap_traits@V?$CStringT@DV?$StrTraitMFC_DLL@DV?$ChTraitsCRT@D@ATL@@@@@ATL@@V12@U?$less@V?$CStringT@DV?$StrTraitMFC_DLL@DV?$ChTraitsCRT@D@ATL@@@@@ATL@@@std@@V?$allocator@U?$pair@$$CBV?$CStringT@DV?$StrTraitMFC_DLL@DV?$ChTraitsCRT@D@ATL@@@@@ATL@@V12@@std@@@4@$0A@@std@@@std@@IAEXXZ 10029e00 f i CrashHandler.obj
 0002:0000b030       ??1?$_Container_base_aux_alloc_empty@V?$allocator@U?$pair@$$CBV?$CStringT@DV?$StrTraitMFC_DLL@DV?$ChTraitsCRT@D@ATL@@@@@ATL@@V12@@std@@@std@@@std@@IAE@XZ 1002a030 f i CrashHandler.obj
 0002:0000b090       ??0?$allocator@U?$pair@$$CBV?$CStringT@DV?$StrTraitMFC_DLL@DV?$ChTraitsCRT@D@ATL@@@@@ATL@@V12@@std@@@std@@QAE@XZ 1002a090 f i CrashHandler.obj
 0002:0000b0d0       ??R?$less@V?$CStringT@DV?$StrTraitMFC_DLL@DV?$ChTraitsCRT@D@ATL@@@@@ATL@@@std@@QBE_NABV?$CStringT@DV?$StrTraitMFC_DLL@DV?$ChTraitsCRT@D@ATL@@@@@ATL@@0@Z 1002a0d0 f i CrashHandler.obj
 0002:0000b130       ?RemoveAt@?$CSimpleMap@HPAVCCrashHandler@@V?$CSimpleMapEqualHelper@HPAVCCrashHandler@@@ATL@@@ATL@@QAEHH@Z 1002a130 f i CrashHandler.obj
 0002:0000b350       ?memmove_s@Checked@ATL@@YAXPAXIPBXI@Z 1002a350 f i CrashHandler.obj
 0002:0000b3d0       ?AfxCrtErrorCheck@@YAHH@Z  1002a3d0 f i CrashHandler.obj
 0002:0000b4e0       ?GetValueAt@?$CSimpleMap@HPAVCCrashHandler@@V?$CSimpleMapEqualHelper@HPAVCCrashHandler@@@ATL@@@ATL@@QBEAAPAVCCrashHandler@@H@Z 1002a4e0 f i CrashHandler.obj
 0002:0000b5b0       ?_AtlRaiseException@ATL@@YAXKK@Z 1002a5b0 f i CrashHandler.obj
 0002:0000b610       ?FindKey@?$CSimpleMap@HPAVCCrashHandler@@V?$CSimpleMapEqualHelper@HPAVCCrashHandler@@@ATL@@@ATL@@QBEHABH@Z 1002a610 f i CrashHandler.obj
 0002:0000b6b0       ?InternalSetAtIndex@?$CSimpleMap@HPAVCCrashHandler@@V?$CSimpleMapEqualHelper@HPAVCCrashHandler@@@ATL@@@ATL@@QAEXHABHABQAVCCrashHandler@@@Z 1002a6b0 f i CrashHandler.obj
 0002:0000b820       ?_Nextnode@?$list@VDumpNode@@V?$allocator@VDumpNode@@@std@@@std@@KAAAPAU_Node@?$_List_nod@VDumpNode@@V?$allocator@VDumpNode@@@std@@@2@PAU342@@Z 1002a820 f i CrashHandler.obj
 0002:0000b860       ??0?$_Iterator@$00@?$list@VDumpNode@@V?$allocator@VDumpNode@@@std@@@std@@QAE@PAU_Node@?$_List_nod@VDumpNode@@V?$allocator@VDumpNode@@@std@@@2@PBV12@@Z 1002a860 f i CrashHandler.obj
 0002:0000b8c0       ??D?$_Const_iterator@$00@?$list@VDumpNode@@V?$allocator@VDumpNode@@@std@@@std@@QBEABVDumpNode@@XZ 1002a8c0 f i CrashHandler.obj
 0002:0000b9f0       ??E?$_Const_iterator@$00@?$list@VDumpNode@@V?$allocator@VDumpNode@@@std@@@std@@QAEAAV012@XZ 1002a9f0 f i CrashHandler.obj
 0002:0000bb30       ??8?$_Const_iterator@$00@?$list@VDumpNode@@V?$allocator@VDumpNode@@@std@@@std@@QBE_NABV012@@Z 1002ab30 f i CrashHandler.obj
 0002:0000bba0       ??0iterator@?$_Tree@V?$_Tmap_traits@V?$CStringT@DV?$StrTraitMFC_DLL@DV?$ChTraitsCRT@D@ATL@@@@@ATL@@V12@U?$less@V?$CStringT@DV?$StrTraitMFC_DLL@DV?$ChTraitsCRT@D@ATL@@@@@ATL@@@std@@V?$allocator@U?$pair@$$CBV?$CStringT@DV?$StrTraitMFC_DLL@DV?$ChTraitsCRT@D@ATL@@@@@ATL@@V12@@std@@@4@$0A@@std@@@std@@QAE@PAU_Node@?$_Tree_nod@V?$_Tmap_traits@V?$CStringT@DV?$StrTraitMFC_DLL@DV?$ChTraitsCRT@D@ATL@@@@@ATL@@V12@U?$less@V?$CStringT@DV?$StrTraitMFC_DLL@DV?$ChTraitsCRT@D@ATL@@@@@ATL@@@std@@V?$allocator@U?$pair@$$CBV?$CStringT@DV?$StrTraitMFC_DLL@DV?$ChTraitsCRT@D@ATL@@@@@ATL@@V12@@std@@@4@$0A@@std@@@2@PBV12@@Z 1002aba0 f i CrashHandler.obj
 0002:0000bc00       ??Eiterator@?$_Tree@V?$_Tmap_traits@V?$CStringT@DV?$StrTraitMFC_DLL@DV?$ChTraitsCRT@D@ATL@@@@@ATL@@V12@U?$less@V?$CStringT@DV?$StrTraitMFC_DLL@DV?$ChTraitsCRT@D@ATL@@@@@ATL@@@std@@V?$allocator@U?$pair@$$CBV?$CStringT@DV?$StrTraitMFC_DLL@DV?$ChTraitsCRT@D@ATL@@@@@ATL@@V12@@std@@@4@$0A@@std@@@std@@QAEAAV012@XZ 1002ac00 f i CrashHandler.obj
 0002:0000bc60       ??Dconst_iterator@?$_Tree@V?$_Tmap_traits@V?$CStringT@DV?$StrTraitMFC_DLL@DV?$ChTraitsCRT@D@ATL@@@@@ATL@@V12@U?$less@V?$CStringT@DV?$StrTraitMFC_DLL@DV?$ChTraitsCRT@D@ATL@@@@@ATL@@@std@@V?$allocator@U?$pair@$$CBV?$CStringT@DV?$StrTraitMFC_DLL@DV?$ChTraitsCRT@D@ATL@@@@@ATL@@V12@@std@@@4@$0A@@std@@@std@@QBEABU?$pair@$$CBV?$CStringT@DV?$StrTraitMFC_DLL@DV?$ChTraitsCRT@D@ATL@@@@@ATL@@V12@@2@XZ 1002ac60 f i CrashHandler.obj
 0002:0000bd80       ??8const_iterator@?$_Tree@V?$_Tmap_traits@V?$CStringT@DV?$StrTraitMFC_DLL@DV?$ChTraitsCRT@D@ATL@@@@@ATL@@V12@U?$less@V?$CStringT@DV?$StrTraitMFC_DLL@DV?$ChTraitsCRT@D@ATL@@@@@ATL@@@std@@V?$allocator@U?$pair@$$CBV?$CStringT@DV?$StrTraitMFC_DLL@DV?$ChTraitsCRT@D@ATL@@@@@ATL@@V12@@std@@@4@$0A@@std@@@std@@QBE_NABV012@@Z 1002ad80 f i CrashHandler.obj
 0002:0000be90       ?_Mynode@const_iterator@?$_Tree@V?$_Tmap_traits@V?$CStringT@DV?$StrTraitMFC_DLL@DV?$ChTraitsCRT@D@ATL@@@@@ATL@@V12@U?$less@V?$CStringT@DV?$StrTraitMFC_DLL@DV?$ChTraitsCRT@D@ATL@@@@@ATL@@@std@@V?$allocator@U?$pair@$$CBV?$CStringT@DV?$StrTraitMFC_DLL@DV?$ChTraitsCRT@D@ATL@@@@@ATL@@V12@@std@@@4@$0A@@std@@@std@@QBEPAU_Node@?$_Tree_nod@V?$_Tmap_traits@V?$CStringT@DV?$StrTraitMFC_DLL@DV?$ChTraitsCRT@D@ATL@@@@@ATL@@V12@U?$less@V?$CStringT@DV?$StrTraitMFC_DLL@DV?$ChTraitsCRT@D@ATL@@@@@ATL@@@std@@V?$allocator@U?$pair@$$CBV?$CStringT@DV?$StrTraitMFC_DLL@DV?$ChTraitsCRT@D@ATL@@@@@ATL@@V12@@std@@@4@$0A@@std@@@3@XZ 1002ae90 f i CrashHandler.obj
 0002:0000bed0       ??0?$pair@$$CBV?$CStringT@DV?$StrTraitMFC_DLL@DV?$ChTraitsCRT@D@ATL@@@@@ATL@@V12@@std@@QAE@ABV?$CStringT@DV?$StrTraitMFC_DLL@DV?$ChTraitsCRT@D@ATL@@@@@ATL@@0@Z 1002aed0 f i CrashHandler.obj
 0002:0000bfa0       ??1?$pair@Viterator@?$_Tree@V?$_Tmap_traits@V?$CStringT@DV?$StrTraitMFC_DLL@DV?$ChTraitsCRT@D@ATL@@@@@ATL@@V12@U?$less@V?$CStringT@DV?$StrTraitMFC_DLL@DV?$ChTraitsCRT@D@ATL@@@@@ATL@@@std@@V?$allocator@U?$pair@$$CBV?$CStringT@DV?$StrTraitMFC_DLL@DV?$ChTraitsCRT@D@ATL@@@@@ATL@@V12@@std@@@4@$0A@@std@@@std@@_N@std@@QAE@XZ 1002afa0 f i CrashHandler.obj
 0002:0000bff0       ??MATL@@YA_NABV?$CStringT@DV?$StrTraitMFC_DLL@DV?$ChTraitsCRT@D@ATL@@@@@0@0@Z 1002aff0 f i CrashHandler.obj
 0002:0000c070       ?_Isnil@?$_Tree@V?$_Tmap_traits@V?$CStringT@DV?$StrTraitMFC_DLL@DV?$ChTraitsCRT@D@ATL@@@@@ATL@@V12@U?$less@V?$CStringT@DV?$StrTraitMFC_DLL@DV?$ChTraitsCRT@D@ATL@@@@@ATL@@@std@@V?$allocator@U?$pair@$$CBV?$CStringT@DV?$StrTraitMFC_DLL@DV?$ChTraitsCRT@D@ATL@@@@@ATL@@V12@@std@@@4@$0A@@std@@@std@@KAAADPAU_Node@?$_Tree_nod@V?$_Tmap_traits@V?$CStringT@DV?$StrTraitMFC_DLL@DV?$ChTraitsCRT@D@ATL@@@@@ATL@@V12@U?$less@V?$CStringT@DV?$StrTraitMFC_DLL@DV?$ChTraitsCRT@D@ATL@@@@@ATL@@@std@@V?$allocator@U?$pair@$$CBV?$CStringT@DV?$StrTraitMFC_DLL@DV?$ChTraitsCRT@D@ATL@@@@@ATL@@V12@@std@@@4@$0A@@std@@@2@@Z 1002b070 f i CrashHandler.obj
 0002:0000c0b0       ?_Left@?$_Tree@V?$_Tmap_traits@V?$CStringT@DV?$StrTraitMFC_DLL@DV?$ChTraitsCRT@D@ATL@@@@@ATL@@V12@U?$less@V?$CStringT@DV?$StrTraitMFC_DLL@DV?$ChTraitsCRT@D@ATL@@@@@ATL@@@std@@V?$allocator@U?$pair@$$CBV?$CStringT@DV?$StrTraitMFC_DLL@DV?$ChTraitsCRT@D@ATL@@@@@ATL@@V12@@std@@@4@$0A@@std@@@std@@KAAAPAU_Node@?$_Tree_nod@V?$_Tmap_traits@V?$CStringT@DV?$StrTraitMFC_DLL@DV?$ChTraitsCRT@D@ATL@@@@@ATL@@V12@U?$less@V?$CStringT@DV?$StrTraitMFC_DLL@DV?$ChTraitsCRT@D@ATL@@@@@ATL@@@std@@V?$allocator@U?$pair@$$CBV?$CStringT@DV?$StrTraitMFC_DLL@DV?$ChTraitsCRT@D@ATL@@@@@ATL@@V12@@std@@@4@$0A@@std@@@2@PAU342@@Z 1002b0b0 f i CrashHandler.obj
 0002:0000c0f0       ?_Parent@?$_Tree@V?$_Tmap_traits@V?$CStringT@DV?$StrTraitMFC_DLL@DV?$ChTraitsCRT@D@ATL@@@@@ATL@@V12@U?$less@V?$CStringT@DV?$StrTraitMFC_DLL@DV?$ChTraitsCRT@D@ATL@@@@@ATL@@@std@@V?$allocator@U?$pair@$$CBV?$CStringT@DV?$StrTraitMFC_DLL@DV?$ChTraitsCRT@D@ATL@@@@@ATL@@V12@@std@@@4@$0A@@std@@@std@@KAAAPAU_Node@?$_Tree_nod@V?$_Tmap_traits@V?$CStringT@DV?$StrTraitMFC_DLL@DV?$ChTraitsCRT@D@ATL@@@@@ATL@@V12@U?$less@V?$CStringT@DV?$StrTraitMFC_DLL@DV?$ChTraitsCRT@D@ATL@@@@@ATL@@@std@@V?$allocator@U?$pair@$$CBV?$CStringT@DV?$StrTraitMFC_DLL@DV?$ChTraitsCRT@D@ATL@@@@@ATL@@V12@@std@@@4@$0A@@std@@@2@PAU342@@Z 1002b0f0 f i CrashHandler.obj
 0002:0000c130       ?_Right@?$_Tree@V?$_Tmap_traits@V?$CStringT@DV?$StrTraitMFC_DLL@DV?$ChTraitsCRT@D@ATL@@@@@ATL@@V12@U?$less@V?$CStringT@DV?$StrTraitMFC_DLL@DV?$ChTraitsCRT@D@ATL@@@@@ATL@@@std@@V?$allocator@U?$pair@$$CBV?$CStringT@DV?$StrTraitMFC_DLL@DV?$ChTraitsCRT@D@ATL@@@@@ATL@@V12@@std@@@4@$0A@@std@@@std@@KAAAPAU_Node@?$_Tree_nod@V?$_Tmap_traits@V?$CStringT@DV?$StrTraitMFC_DLL@DV?$ChTraitsCRT@D@ATL@@@@@ATL@@V12@U?$less@V?$CStringT@DV?$StrTraitMFC_DLL@DV?$ChTraitsCRT@D@ATL@@@@@ATL@@@std@@V?$allocator@U?$pair@$$CBV?$CStringT@DV?$StrTraitMFC_DLL@DV?$ChTraitsCRT@D@ATL@@@@@ATL@@V12@@std@@@4@$0A@@std@@@2@PAU342@@Z 1002b130 f i CrashHandler.obj
 0002:0000c170       ?_Myval@?$_Tree@V?$_Tmap_traits@V?$CStringT@DV?$StrTraitMFC_DLL@DV?$ChTraitsCRT@D@ATL@@@@@ATL@@V12@U?$less@V?$CStringT@DV?$StrTraitMFC_DLL@DV?$ChTraitsCRT@D@ATL@@@@@ATL@@@std@@V?$allocator@U?$pair@$$CBV?$CStringT@DV?$StrTraitMFC_DLL@DV?$ChTraitsCRT@D@ATL@@@@@ATL@@V12@@std@@@4@$0A@@std@@@std@@KAAAU?$pair@$$CBV?$CStringT@DV?$StrTraitMFC_DLL@DV?$ChTraitsCRT@D@ATL@@@@@ATL@@V12@@2@PAU_Node@?$_Tree_nod@V?$_Tmap_traits@V?$CStringT@DV?$StrTraitMFC_DLL@DV?$ChTraitsCRT@D@ATL@@@@@ATL@@V12@U?$less@V?$CStringT@DV?$StrTraitMFC_DLL@DV?$ChTraitsCRT@D@ATL@@@@@ATL@@@std@@V?$allocator@U?$pair@$$CBV?$CStringT@DV?$StrTraitMFC_DLL@DV?$ChTraitsCRT@D@ATL@@@@@ATL@@V12@@std@@@4@$0A@@std@@@2@@Z 1002b170 f i CrashHandler.obj
 0002:0000c1b0       ?insert@?$_Tree@V?$_Tmap_traits@V?$CStringT@DV?$StrTraitMFC_DLL@DV?$ChTraitsCRT@D@ATL@@@@@ATL@@V12@U?$less@V?$CStringT@DV?$StrTraitMFC_DLL@DV?$ChTraitsCRT@D@ATL@@@@@ATL@@@std@@V?$allocator@U?$pair@$$CBV?$CStringT@DV?$StrTraitMFC_DLL@DV?$ChTraitsCRT@D@ATL@@@@@ATL@@V12@@std@@@4@$0A@@std@@@std@@QAE?AU?$pair@Viterator@?$_Tree@V?$_Tmap_traits@V?$CStringT@DV?$StrTraitMFC_DLL@DV?$ChTraitsCRT@D@ATL@@@@@ATL@@V12@U?$less@V?$CStringT@DV?$StrTraitMFC_DLL@DV?$ChTraitsCRT@D@ATL@@@@@ATL@@@std@@V?$allocator@U?$pair@$$CBV?$CStringT@DV?$StrTraitMFC_DLL@DV?$ChTraitsCRT@D@ATL@@@@@ATL@@V12@@std@@@4@$0A@@std@@@std@@_N@2@ABU?$pair@$$CBV?$CStringT@DV?$StrTraitMFC_DLL@DV?$ChTraitsCRT@D@ATL@@@@@ATL@@V12@@2@@Z 1002b1b0 f i CrashHandler.obj
 0002:0000c680       ?erase@?$_Tree@V?$_Tmap_traits@V?$CStringT@DV?$StrTraitMFC_DLL@DV?$ChTraitsCRT@D@ATL@@@@@ATL@@V12@U?$less@V?$CStringT@DV?$StrTraitMFC_DLL@DV?$ChTraitsCRT@D@ATL@@@@@ATL@@@std@@V?$allocator@U?$pair@$$CBV?$CStringT@DV?$StrTraitMFC_DLL@DV?$ChTraitsCRT@D@ATL@@@@@ATL@@V12@@std@@@4@$0A@@std@@@std@@QAE?AViterator@12@Vconst_iterator@12@0@Z 1002b680 f i CrashHandler.obj
 0002:0000c9b0       ?_Init@?$_Tree@V?$_Tmap_traits@V?$CStringT@DV?$StrTraitMFC_DLL@DV?$ChTraitsCRT@D@ATL@@@@@ATL@@V12@U?$less@V?$CStringT@DV?$StrTraitMFC_DLL@DV?$ChTraitsCRT@D@ATL@@@@@ATL@@@std@@V?$allocator@U?$pair@$$CBV?$CStringT@DV?$StrTraitMFC_DLL@DV?$ChTraitsCRT@D@ATL@@@@@ATL@@V12@@std@@@4@$0A@@std@@@std@@IAEXXZ 1002b9b0 f i CrashHandler.obj
 0002:0000ca70       ?_Insert@?$_Tree@V?$_Tmap_traits@V?$CStringT@DV?$StrTraitMFC_DLL@DV?$ChTraitsCRT@D@ATL@@@@@ATL@@V12@U?$less@V?$CStringT@DV?$StrTraitMFC_DLL@DV?$ChTraitsCRT@D@ATL@@@@@ATL@@@std@@V?$allocator@U?$pair@$$CBV?$CStringT@DV?$StrTraitMFC_DLL@DV?$ChTraitsCRT@D@ATL@@@@@ATL@@V12@@std@@@4@$0A@@std@@@std@@IAE?AViterator@12@_NPAU_Node@?$_Tree_nod@V?$_Tmap_traits@V?$CStringT@DV?$StrTraitMFC_DLL@DV?$ChTraitsCRT@D@ATL@@@@@ATL@@V12@U?$less@V?$CStringT@DV?$StrTraitMFC_DLL@DV?$ChTraitsCRT@D@ATL@@@@@ATL@@@std@@V?$allocator@U?$pair@$$CBV?$CStringT@DV?$StrTraitMFC_DLL@DV?$ChTraitsCRT@D@ATL@@@@@ATL@@V12@@std@@@4@$0A@@std@@@2@ABU?$pair@$$CBV?$CStringT@DV?$StrTraitMFC_DLL@DV?$ChTraitsCRT@D@ATL@@@@@ATL@@V12@@2@@Z 1002ba70 f i CrashHandler.obj
 0002:0000d080       ??0length_error@std@@QAE@ABV?$basic_string@DU?$char_traits@D@std@@V?$allocator@D@2@@1@@Z 1002c080 f i CrashHandler.obj
 0002:0000d0f0       ??0logic_error@std@@QAE@ABV?$basic_string@DU?$char_traits@D@std@@V?$allocator@D@2@@1@@Z 1002c0f0 f i CrashHandler.obj
 0002:0000d1d0       ?what@logic_error@std@@UBEPBDXZ 1002c1d0 f i CrashHandler.obj
 0002:0000d230       ??_Glogic_error@std@@UAEPAXI@Z 1002c230 f i CrashHandler.obj
 0002:0000d230       ??_Elogic_error@std@@UAEPAXI@Z 1002c230 f i CrashHandler.obj
 0002:0000d2a0       ??1logic_error@std@@UAE@XZ 1002c2a0 f i CrashHandler.obj
 0002:0000d320       ??1length_error@std@@UAE@XZ 1002c320 f i CrashHandler.obj
 0002:0000d380       ??_Glength_error@std@@UAEPAXI@Z 1002c380 f i CrashHandler.obj
 0002:0000d380       ??_Elength_error@std@@UAEPAXI@Z 1002c380 f i CrashHandler.obj
 0002:0000d3f0       ??0logic_error@std@@QAE@ABV01@@Z 1002c3f0 f i CrashHandler.obj
 0002:0000d4d0       ?_Lbound@?$_Tree@V?$_Tmap_traits@V?$CStringT@DV?$StrTraitMFC_DLL@DV?$ChTraitsCRT@D@ATL@@@@@ATL@@V12@U?$less@V?$CStringT@DV?$StrTraitMFC_DLL@DV?$ChTraitsCRT@D@ATL@@@@@ATL@@@std@@V?$allocator@U?$pair@$$CBV?$CStringT@DV?$StrTraitMFC_DLL@DV?$ChTraitsCRT@D@ATL@@@@@ATL@@V12@@std@@@4@$0A@@std@@@std@@IBEPAU_Node@?$_Tree_nod@V?$_Tmap_traits@V?$CStringT@DV?$StrTraitMFC_DLL@DV?$ChTraitsCRT@D@ATL@@@@@ATL@@V12@U?$less@V?$CStringT@DV?$StrTraitMFC_DLL@DV?$ChTraitsCRT@D@ATL@@@@@ATL@@@std@@V?$allocator@U?$pair@$$CBV?$CStringT@DV?$StrTraitMFC_DLL@DV?$ChTraitsCRT@D@ATL@@@@@ATL@@V12@@std@@@4@$0A@@std@@@2@ABV?$CStringT@DV?$StrTraitMFC_DLL@DV?$ChTraitsCRT@D@ATL@@@@@ATL@@@Z 1002c4d0 f i CrashHandler.obj
 0002:0000d5d0       ?_Rmost@?$_Tree@V?$_Tmap_traits@V?$CStringT@DV?$StrTraitMFC_DLL@DV?$ChTraitsCRT@D@ATL@@@@@ATL@@V12@U?$less@V?$CStringT@DV?$StrTraitMFC_DLL@DV?$ChTraitsCRT@D@ATL@@@@@ATL@@@std@@V?$allocator@U?$pair@$$CBV?$CStringT@DV?$StrTraitMFC_DLL@DV?$ChTraitsCRT@D@ATL@@@@@ATL@@V12@@std@@@4@$0A@@std@@@std@@IBEAAPAU_Node@?$_Tree_nod@V?$_Tmap_traits@V?$CStringT@DV?$StrTraitMFC_DLL@DV?$ChTraitsCRT@D@ATL@@@@@ATL@@V12@U?$less@V?$CStringT@DV?$StrTraitMFC_DLL@DV?$ChTraitsCRT@D@ATL@@@@@ATL@@@std@@V?$allocator@U?$pair@$$CBV?$CStringT@DV?$StrTraitMFC_DLL@DV?$ChTraitsCRT@D@ATL@@@@@ATL@@V12@@std@@@4@$0A@@std@@@2@XZ 1002c5d0 f i CrashHandler.obj
 0002:0000d630       ??0?$_Tree_val@V?$_Tmap_traits@V?$CStringT@DV?$StrTraitMFC_DLL@DV?$ChTraitsCRT@D@ATL@@@@@ATL@@V12@U?$less@V?$CStringT@DV?$StrTraitMFC_DLL@DV?$ChTraitsCRT@D@ATL@@@@@ATL@@@std@@V?$allocator@U?$pair@$$CBV?$CStringT@DV?$StrTraitMFC_DLL@DV?$ChTraitsCRT@D@ATL@@@@@ATL@@V12@@std@@@4@$0A@@std@@@std@@IAE@ABU?$less@V?$CStringT@DV?$StrTraitMFC_DLL@DV?$ChTraitsCRT@D@ATL@@@@@ATL@@@1@V?$allocator@U?$pair@$$CBV?$CStringT@DV?$StrTraitMFC_DLL@DV?$ChTraitsCRT@D@ATL@@@@@ATL@@V12@@std@@@1@@Z 1002c630 f i CrashHandler.obj
 0002:0000d6c0       ?_Kfn@?$_Tmap_traits@V?$CStringT@DV?$StrTraitMFC_DLL@DV?$ChTraitsCRT@D@ATL@@@@@ATL@@V12@U?$less@V?$CStringT@DV?$StrTraitMFC_DLL@DV?$ChTraitsCRT@D@ATL@@@@@ATL@@@std@@V?$allocator@U?$pair@$$CBV?$CStringT@DV?$StrTraitMFC_DLL@DV?$ChTraitsCRT@D@ATL@@@@@ATL@@V12@@std@@@4@$0A@@std@@SAABV?$CStringT@DV?$StrTraitMFC_DLL@DV?$ChTraitsCRT@D@ATL@@@@@ATL@@ABU?$pair@$$CBV?$CStringT@DV?$StrTraitMFC_DLL@DV?$ChTraitsCRT@D@ATL@@@@@ATL@@V12@@2@@Z 1002c6c0 f i CrashHandler.obj
 0002:0000d700       ??0?$allocator@U?$pair@$$CBV?$CStringT@DV?$StrTraitMFC_DLL@DV?$ChTraitsCRT@D@ATL@@@@@ATL@@V12@@std@@@std@@QAE@ABV01@@Z 1002c700 f i CrashHandler.obj
 0002:0000d740       ?deallocate@?$allocator@U_Node@?$_Tree_nod@V?$_Tmap_traits@V?$CStringT@DV?$StrTraitMFC_DLL@DV?$ChTraitsCRT@D@ATL@@@@@ATL@@V12@U?$less@V?$CStringT@DV?$StrTraitMFC_DLL@DV?$ChTraitsCRT@D@ATL@@@@@ATL@@@std@@V?$allocator@U?$pair@$$CBV?$CStringT@DV?$StrTraitMFC_DLL@DV?$ChTraitsCRT@D@ATL@@@@@ATL@@V12@@std@@@4@$0A@@std@@@std@@@std@@QAEXPAU_Node@?$_Tree_nod@V?$_Tmap_traits@V?$CStringT@DV?$StrTraitMFC_DLL@DV?$ChTraitsCRT@D@ATL@@@@@ATL@@V12@U?$less@V?$CStringT@DV?$StrTraitMFC_DLL@DV?$ChTraitsCRT@D@ATL@@@@@ATL@@@std@@V?$allocator@U?$pair@$$CBV?$CStringT@DV?$StrTraitMFC_DLL@DV?$ChTraitsCRT@D@ATL@@@@@ATL@@V12@@std@@@4@$0A@@std@@@2@I@Z 1002c740 f i CrashHandler.obj
 0002:0000d7a0       ?destroy@?$allocator@PAU_Node@?$_Tree_nod@V?$_Tmap_traits@V?$CStringT@DV?$StrTraitMFC_DLL@DV?$ChTraitsCRT@D@ATL@@@@@ATL@@V12@U?$less@V?$CStringT@DV?$StrTraitMFC_DLL@DV?$ChTraitsCRT@D@ATL@@@@@ATL@@@std@@V?$allocator@U?$pair@$$CBV?$CStringT@DV?$StrTraitMFC_DLL@DV?$ChTraitsCRT@D@ATL@@@@@ATL@@V12@@std@@@4@$0A@@std@@@std@@@std@@QAEXPAPAU_Node@?$_Tree_nod@V?$_Tmap_traits@V?$CStringT@DV?$StrTraitMFC_DLL@DV?$ChTraitsCRT@D@ATL@@@@@ATL@@V12@U?$less@V?$CStringT@DV?$StrTraitMFC_DLL@DV?$ChTraitsCRT@D@ATL@@@@@ATL@@@std@@V?$allocator@U?$pair@$$CBV?$CStringT@DV?$StrTraitMFC_DLL@DV?$ChTraitsCRT@D@ATL@@@@@ATL@@V12@@std@@@4@$0A@@std@@@2@@Z 1002c7a0 f i CrashHandler.obj
 0002:0000d800       ?_Myval@?$list@VDumpNode@@V?$allocator@VDumpNode@@@std@@@std@@KAAAVDumpNode@@PAU_Node@?$_List_nod@VDumpNode@@V?$allocator@VDumpNode@@@std@@@2@@Z 1002c800 f i CrashHandler.obj
 0002:0000d840       ??0?$_Const_iterator@$00@?$list@VDumpNode@@V?$allocator@VDumpNode@@@std@@@std@@QAE@PAU_Node@?$_List_nod@VDumpNode@@V?$allocator@VDumpNode@@@std@@@2@PBV12@@Z 1002c840 f i CrashHandler.obj
 0002:0000d900       ?_Compat@?$_Const_iterator@$00@?$list@VDumpNode@@V?$allocator@VDumpNode@@@std@@@std@@QBEXABV123@@Z 1002c900 f i CrashHandler.obj
 0002:0000da10       ??0const_iterator@?$_Tree@V?$_Tmap_traits@V?$CStringT@DV?$StrTraitMFC_DLL@DV?$ChTraitsCRT@D@ATL@@@@@ATL@@V12@U?$less@V?$CStringT@DV?$StrTraitMFC_DLL@DV?$ChTraitsCRT@D@ATL@@@@@ATL@@@std@@V?$allocator@U?$pair@$$CBV?$CStringT@DV?$StrTraitMFC_DLL@DV?$ChTraitsCRT@D@ATL@@@@@ATL@@V12@@std@@@4@$0A@@std@@@std@@QAE@XZ 1002ca10 f i CrashHandler.obj
 0002:0000da70       ??0const_iterator@?$_Tree@V?$_Tmap_traits@V?$CStringT@DV?$StrTraitMFC_DLL@DV?$ChTraitsCRT@D@ATL@@@@@ATL@@V12@U?$less@V?$CStringT@DV?$StrTraitMFC_DLL@DV?$ChTraitsCRT@D@ATL@@@@@ATL@@@std@@V?$allocator@U?$pair@$$CBV?$CStringT@DV?$StrTraitMFC_DLL@DV?$ChTraitsCRT@D@ATL@@@@@ATL@@V12@@std@@@4@$0A@@std@@@std@@QAE@PAU_Node@?$_Tree_nod@V?$_Tmap_traits@V?$CStringT@DV?$StrTraitMFC_DLL@DV?$ChTraitsCRT@D@ATL@@@@@ATL@@V12@U?$less@V?$CStringT@DV?$StrTraitMFC_DLL@DV?$ChTraitsCRT@D@ATL@@@@@ATL@@@std@@V?$allocator@U?$pair@$$CBV?$CStringT@DV?$StrTraitMFC_DLL@DV?$ChTraitsCRT@D@ATL@@@@@ATL@@V12@@std@@@4@$0A@@std@@@2@PBV12@@Z 1002ca70 f i CrashHandler.obj
 0002:0000db30       ??Econst_iterator@?$_Tree@V?$_Tmap_traits@V?$CStringT@DV?$StrTraitMFC_DLL@DV?$ChTraitsCRT@D@ATL@@@@@ATL@@V12@U?$less@V?$CStringT@DV?$StrTraitMFC_DLL@DV?$ChTraitsCRT@D@ATL@@@@@ATL@@@std@@V?$allocator@U?$pair@$$CBV?$CStringT@DV?$StrTraitMFC_DLL@DV?$ChTraitsCRT@D@ATL@@@@@ATL@@V12@@std@@@4@$0A@@std@@@std@@QAEAAV012@XZ 1002cb30 f i CrashHandler.obj
 0002:0000db90       ??Fconst_iterator@?$_Tree@V?$_Tmap_traits@V?$CStringT@DV?$StrTraitMFC_DLL@DV?$ChTraitsCRT@D@ATL@@@@@ATL@@V12@U?$less@V?$CStringT@DV?$StrTraitMFC_DLL@DV?$ChTraitsCRT@D@ATL@@@@@ATL@@@std@@V?$allocator@U?$pair@$$CBV?$CStringT@DV?$StrTraitMFC_DLL@DV?$ChTraitsCRT@D@ATL@@@@@ATL@@V12@@std@@@4@$0A@@std@@@std@@QAEAAV012@XZ 1002cb90 f i CrashHandler.obj
 0002:0000dbf0       ?IsEqualKey@?$CSimpleMapEqualHelper@HPAVCCrashHandler@@@ATL@@SA_NABH0@Z 1002cbf0 f i CrashHandler.obj
 0002:0000dc50       ??0?$Wrapper@H@?$CSimpleMap@HPAVCCrashHandler@@V?$CSimpleMapEqualHelper@HPAVCCrashHandler@@@ATL@@@ATL@@QAE@ABH@Z 1002cc50 f i CrashHandler.obj
 0002:0000dca0       ??0?$Wrapper@PAVCCrashHandler@@@?$CSimpleMap@HPAVCCrashHandler@@V?$CSimpleMapEqualHelper@HPAVCCrashHandler@@@ATL@@@ATL@@QAE@ABQAVCCrashHandler@@@Z 1002cca0 f i CrashHandler.obj
 0002:0000dcf0       ??0length_error@std@@QAE@ABV01@@Z 1002ccf0 f i CrashHandler.obj
 0002:0000dd60       ??0?$_Bidit@VDumpNode@@HPBV1@ABV1@@std@@QAE@XZ 1002cd60 f i CrashHandler.obj
 0002:0000ddc0       ??0?$_Bidit@U?$pair@$$CBV?$CStringT@DV?$StrTraitMFC_DLL@DV?$ChTraitsCRT@D@ATL@@@@@ATL@@V12@@std@@HPBU12@ABU12@@std@@QAE@XZ 1002cdc0 f i CrashHandler.obj
 0002:0000de20       ??0?$_Iterator_with_base@Ubidirectional_iterator_tag@std@@VDumpNode@@HPBV3@ABV3@V_Iterator_base@2@@std@@QAE@XZ 1002ce20 f i CrashHandler.obj
 0002:0000de80       ??0_Iterator_base@std@@QAE@XZ 1002ce80 f i CrashHandler.obj
 0002:0000ded0       ??0?$_Iterator_with_base@Ubidirectional_iterator_tag@std@@U?$pair@$$CBV?$CStringT@DV?$StrTraitMFC_DLL@DV?$ChTraitsCRT@D@ATL@@@@@ATL@@V12@@2@HPBU32@ABU32@V_Iterator_base@2@@std@@QAE@XZ 1002ced0 f i CrashHandler.obj
 0002:0000df30       ?_Color@?$_Tree@V?$_Tmap_traits@V?$CStringT@DV?$StrTraitMFC_DLL@DV?$ChTraitsCRT@D@ATL@@@@@ATL@@V12@U?$less@V?$CStringT@DV?$StrTraitMFC_DLL@DV?$ChTraitsCRT@D@ATL@@@@@ATL@@@std@@V?$allocator@U?$pair@$$CBV?$CStringT@DV?$StrTraitMFC_DLL@DV?$ChTraitsCRT@D@ATL@@@@@ATL@@V12@@std@@@4@$0A@@std@@@std@@KAAADPAU_Node@?$_Tree_nod@V?$_Tmap_traits@V?$CStringT@DV?$StrTraitMFC_DLL@DV?$ChTraitsCRT@D@ATL@@@@@ATL@@V12@U?$less@V?$CStringT@DV?$StrTraitMFC_DLL@DV?$ChTraitsCRT@D@ATL@@@@@ATL@@@std@@V?$allocator@U?$pair@$$CBV?$CStringT@DV?$StrTraitMFC_DLL@DV?$ChTraitsCRT@D@ATL@@@@@ATL@@V12@@std@@@4@$0A@@std@@@2@@Z 1002cf30 f i CrashHandler.obj
 0002:0000df70       ?_Make_iter@?$_Tree@V?$_Tmap_traits@V?$CStringT@DV?$StrTraitMFC_DLL@DV?$ChTraitsCRT@D@ATL@@@@@ATL@@V12@U?$less@V?$CStringT@DV?$StrTraitMFC_DLL@DV?$ChTraitsCRT@D@ATL@@@@@ATL@@@std@@V?$allocator@U?$pair@$$CBV?$CStringT@DV?$StrTraitMFC_DLL@DV?$ChTraitsCRT@D@ATL@@@@@ATL@@V12@@std@@@4@$0A@@std@@@std@@QBE?AViterator@12@Vconst_iterator@12@@Z 1002cf70 f i CrashHandler.obj
 0002:0000e080       ?max_size@?$_Tree@V?$_Tmap_traits@V?$CStringT@DV?$StrTraitMFC_DLL@DV?$ChTraitsCRT@D@ATL@@@@@ATL@@V12@U?$less@V?$CStringT@DV?$StrTraitMFC_DLL@DV?$ChTraitsCRT@D@ATL@@@@@ATL@@@std@@V?$allocator@U?$pair@$$CBV?$CStringT@DV?$StrTraitMFC_DLL@DV?$ChTraitsCRT@D@ATL@@@@@ATL@@V12@@std@@@4@$0A@@std@@@std@@QBEIXZ 1002d080 f i CrashHandler.obj
 0002:0000e0e0       ?erase@?$_Tree@V?$_Tmap_traits@V?$CStringT@DV?$StrTraitMFC_DLL@DV?$ChTraitsCRT@D@ATL@@@@@ATL@@V12@U?$less@V?$CStringT@DV?$StrTraitMFC_DLL@DV?$ChTraitsCRT@D@ATL@@@@@ATL@@@std@@V?$allocator@U?$pair@$$CBV?$CStringT@DV?$StrTraitMFC_DLL@DV?$ChTraitsCRT@D@ATL@@@@@ATL@@V12@@std@@@4@$0A@@std@@@std@@QAE?AViterator@12@Vconst_iterator@12@@Z 1002d0e0 f i CrashHandler.obj
 0002:0000eb40       ?clear@?$_Tree@V?$_Tmap_traits@V?$CStringT@DV?$StrTraitMFC_DLL@DV?$ChTraitsCRT@D@ATL@@@@@ATL@@V12@U?$less@V?$CStringT@DV?$StrTraitMFC_DLL@DV?$ChTraitsCRT@D@ATL@@@@@ATL@@@std@@V?$allocator@U?$pair@$$CBV?$CStringT@DV?$StrTraitMFC_DLL@DV?$ChTraitsCRT@D@ATL@@@@@ATL@@V12@@std@@@4@$0A@@std@@@std@@QAEXXZ 1002db40 f i CrashHandler.obj
 0002:0000ec00       ?_Lrotate@?$_Tree@V?$_Tmap_traits@V?$CStringT@DV?$StrTraitMFC_DLL@DV?$ChTraitsCRT@D@ATL@@@@@ATL@@V12@U?$less@V?$CStringT@DV?$StrTraitMFC_DLL@DV?$ChTraitsCRT@D@ATL@@@@@ATL@@@std@@V?$allocator@U?$pair@$$CBV?$CStringT@DV?$StrTraitMFC_DLL@DV?$ChTraitsCRT@D@ATL@@@@@ATL@@V12@@std@@@4@$0A@@std@@@std@@IAEXPAU_Node@?$_Tree_nod@V?$_Tmap_traits@V?$CStringT@DV?$StrTraitMFC_DLL@DV?$ChTraitsCRT@D@ATL@@@@@ATL@@V12@U?$less@V?$CStringT@DV?$StrTraitMFC_DLL@DV?$ChTraitsCRT@D@ATL@@@@@ATL@@@std@@V?$allocator@U?$pair@$$CBV?$CStringT@DV?$StrTraitMFC_DLL@DV?$ChTraitsCRT@D@ATL@@@@@ATL@@V12@@std@@@4@$0A@@std@@@2@@Z 1002dc00 f i CrashHandler.obj
 0002:0000edb0       ?_Root@?$_Tree@V?$_Tmap_traits@V?$CStringT@DV?$StrTraitMFC_DLL@DV?$ChTraitsCRT@D@ATL@@@@@ATL@@V12@U?$less@V?$CStringT@DV?$StrTraitMFC_DLL@DV?$ChTraitsCRT@D@ATL@@@@@ATL@@@std@@V?$allocator@U?$pair@$$CBV?$CStringT@DV?$StrTraitMFC_DLL@DV?$ChTraitsCRT@D@ATL@@@@@ATL@@V12@@std@@@4@$0A@@std@@@std@@IBEAAPAU_Node@?$_Tree_nod@V?$_Tmap_traits@V?$CStringT@DV?$StrTraitMFC_DLL@DV?$ChTraitsCRT@D@ATL@@@@@ATL@@V12@U?$less@V?$CStringT@DV?$StrTraitMFC_DLL@DV?$ChTraitsCRT@D@ATL@@@@@ATL@@@std@@V?$allocator@U?$pair@$$CBV?$CStringT@DV?$StrTraitMFC_DLL@DV?$ChTraitsCRT@D@ATL@@@@@ATL@@V12@@std@@@4@$0A@@std@@@2@XZ 1002ddb0 f i CrashHandler.obj
 0002:0000ee10       ?_Rrotate@?$_Tree@V?$_Tmap_traits@V?$CStringT@DV?$StrTraitMFC_DLL@DV?$ChTraitsCRT@D@ATL@@@@@ATL@@V12@U?$less@V?$CStringT@DV?$StrTraitMFC_DLL@DV?$ChTraitsCRT@D@ATL@@@@@ATL@@@std@@V?$allocator@U?$pair@$$CBV?$CStringT@DV?$StrTraitMFC_DLL@DV?$ChTraitsCRT@D@ATL@@@@@ATL@@V12@@std@@@4@$0A@@std@@@std@@IAEXPAU_Node@?$_Tree_nod@V?$_Tmap_traits@V?$CStringT@DV?$StrTraitMFC_DLL@DV?$ChTraitsCRT@D@ATL@@@@@ATL@@V12@U?$less@V?$CStringT@DV?$StrTraitMFC_DLL@DV?$ChTraitsCRT@D@ATL@@@@@ATL@@@std@@V?$allocator@U?$pair@$$CBV?$CStringT@DV?$StrTraitMFC_DLL@DV?$ChTraitsCRT@D@ATL@@@@@ATL@@V12@@std@@@4@$0A@@std@@@2@@Z 1002de10 f i CrashHandler.obj
 0002:0000efc0       ?_Buynode@?$_Tree@V?$_Tmap_traits@V?$CStringT@DV?$StrTraitMFC_DLL@DV?$ChTraitsCRT@D@ATL@@@@@ATL@@V12@U?$less@V?$CStringT@DV?$StrTraitMFC_DLL@DV?$ChTraitsCRT@D@ATL@@@@@ATL@@@std@@V?$allocator@U?$pair@$$CBV?$CStringT@DV?$StrTraitMFC_DLL@DV?$ChTraitsCRT@D@ATL@@@@@ATL@@V12@@std@@@4@$0A@@std@@@std@@IAEPAU_Node@?$_Tree_nod@V?$_Tmap_traits@V?$CStringT@DV?$StrTraitMFC_DLL@DV?$ChTraitsCRT@D@ATL@@@@@ATL@@V12@U?$less@V?$CStringT@DV?$StrTraitMFC_DLL@DV?$ChTraitsCRT@D@ATL@@@@@ATL@@@std@@V?$allocator@U?$pair@$$CBV?$CStringT@DV?$StrTraitMFC_DLL@DV?$ChTraitsCRT@D@ATL@@@@@ATL@@V12@@std@@@4@$0A@@std@@@2@XZ 1002dfc0 f i CrashHandler.obj
 0002:0000f200       ?_Buynode@?$_Tree@V?$_Tmap_traits@V?$CStringT@DV?$StrTraitMFC_DLL@DV?$ChTraitsCRT@D@ATL@@@@@ATL@@V12@U?$less@V?$CStringT@DV?$StrTraitMFC_DLL@DV?$ChTraitsCRT@D@ATL@@@@@ATL@@@std@@V?$allocator@U?$pair@$$CBV?$CStringT@DV?$StrTraitMFC_DLL@DV?$ChTraitsCRT@D@ATL@@@@@ATL@@V12@@std@@@4@$0A@@std@@@std@@IAEPAU_Node@?$_Tree_nod@V?$_Tmap_traits@V?$CStringT@DV?$StrTraitMFC_DLL@DV?$ChTraitsCRT@D@ATL@@@@@ATL@@V12@U?$less@V?$CStringT@DV?$StrTraitMFC_DLL@DV?$ChTraitsCRT@D@ATL@@@@@ATL@@@std@@V?$allocator@U?$pair@$$CBV?$CStringT@DV?$StrTraitMFC_DLL@DV?$ChTraitsCRT@D@ATL@@@@@ATL@@V12@@std@@@4@$0A@@std@@@2@PAU342@00ABU?$pair@$$CBV?$CStringT@DV?$StrTraitMFC_DLL@DV?$ChTraitsCRT@D@ATL@@@@@ATL@@V12@@2@D@Z 1002e200 f i CrashHandler.obj
 0002:0000f380       ??2@YAPAXIPAX@Z            1002e380 f i CrashHandler.obj
 0002:0000f3c0       ??3@YAXPAX0@Z              1002e3c0 f i CrashHandler.obj
 0002:0000f3f0       ??0?$_Tree_ptr@V?$_Tmap_traits@V?$CStringT@DV?$StrTraitMFC_DLL@DV?$ChTraitsCRT@D@ATL@@@@@ATL@@V12@U?$less@V?$CStringT@DV?$StrTraitMFC_DLL@DV?$ChTraitsCRT@D@ATL@@@@@ATL@@@std@@V?$allocator@U?$pair@$$CBV?$CStringT@DV?$StrTraitMFC_DLL@DV?$ChTraitsCRT@D@ATL@@@@@ATL@@V12@@std@@@4@$0A@@std@@@std@@QAE@ABU?$less@V?$CStringT@DV?$StrTraitMFC_DLL@DV?$ChTraitsCRT@D@ATL@@@@@ATL@@@1@V?$allocator@U?$pair@$$CBV?$CStringT@DV?$StrTraitMFC_DLL@DV?$ChTraitsCRT@D@ATL@@@@@ATL@@V12@@std@@@1@@Z 1002e3f0 f i CrashHandler.obj
 0002:0000f480       ??Fiterator@?$_Tree@V?$_Tmap_traits@V?$CStringT@DV?$StrTraitMFC_DLL@DV?$ChTraitsCRT@D@ATL@@@@@ATL@@V12@U?$less@V?$CStringT@DV?$StrTraitMFC_DLL@DV?$ChTraitsCRT@D@ATL@@@@@ATL@@@std@@V?$allocator@U?$pair@$$CBV?$CStringT@DV?$StrTraitMFC_DLL@DV?$ChTraitsCRT@D@ATL@@@@@ATL@@V12@@std@@@4@$0A@@std@@@std@@QAEAAV012@XZ 1002e480 f i CrashHandler.obj
 0002:0000f4e0       ??Econst_iterator@?$_Tree@V?$_Tmap_traits@V?$CStringT@DV?$StrTraitMFC_DLL@DV?$ChTraitsCRT@D@ATL@@@@@ATL@@V12@U?$less@V?$CStringT@DV?$StrTraitMFC_DLL@DV?$ChTraitsCRT@D@ATL@@@@@ATL@@@std@@V?$allocator@U?$pair@$$CBV?$CStringT@DV?$StrTraitMFC_DLL@DV?$ChTraitsCRT@D@ATL@@@@@ATL@@V12@@std@@@4@$0A@@std@@@std@@QAE?AV012@H@Z 1002e4e0 f i CrashHandler.obj
 0002:0000f600       ??9const_iterator@?$_Tree@V?$_Tmap_traits@V?$CStringT@DV?$StrTraitMFC_DLL@DV?$ChTraitsCRT@D@ATL@@@@@ATL@@V12@U?$less@V?$CStringT@DV?$StrTraitMFC_DLL@DV?$ChTraitsCRT@D@ATL@@@@@ATL@@@std@@V?$allocator@U?$pair@$$CBV?$CStringT@DV?$StrTraitMFC_DLL@DV?$ChTraitsCRT@D@ATL@@@@@ATL@@V12@@std@@@4@$0A@@std@@@std@@QBE_NABV012@@Z 1002e600 f i CrashHandler.obj
 0002:0000f670       ?_Dec@const_iterator@?$_Tree@V?$_Tmap_traits@V?$CStringT@DV?$StrTraitMFC_DLL@DV?$ChTraitsCRT@D@ATL@@@@@ATL@@V12@U?$less@V?$CStringT@DV?$StrTraitMFC_DLL@DV?$ChTraitsCRT@D@ATL@@@@@ATL@@@std@@V?$allocator@U?$pair@$$CBV?$CStringT@DV?$StrTraitMFC_DLL@DV?$ChTraitsCRT@D@ATL@@@@@ATL@@V12@@std@@@4@$0A@@std@@@std@@QAEXXZ 1002e670 f i CrashHandler.obj
 0002:0000f9d0       ?_Inc@const_iterator@?$_Tree@V?$_Tmap_traits@V?$CStringT@DV?$StrTraitMFC_DLL@DV?$ChTraitsCRT@D@ATL@@@@@ATL@@V12@U?$less@V?$CStringT@DV?$StrTraitMFC_DLL@DV?$ChTraitsCRT@D@ATL@@@@@ATL@@@std@@V?$allocator@U?$pair@$$CBV?$CStringT@DV?$StrTraitMFC_DLL@DV?$ChTraitsCRT@D@ATL@@@@@ATL@@V12@@std@@@4@$0A@@std@@@std@@QAEXXZ 1002e9d0 f i CrashHandler.obj
 0002:0000fba0       ??0?$pair@Viterator@?$_Tree@V?$_Tmap_traits@V?$CStringT@DV?$StrTraitMFC_DLL@DV?$ChTraitsCRT@D@ATL@@@@@ATL@@V12@U?$less@V?$CStringT@DV?$StrTraitMFC_DLL@DV?$ChTraitsCRT@D@ATL@@@@@ATL@@@std@@V?$allocator@U?$pair@$$CBV?$CStringT@DV?$StrTraitMFC_DLL@DV?$ChTraitsCRT@D@ATL@@@@@ATL@@V12@@std@@@4@$0A@@std@@@std@@_N@std@@QAE@ABViterator@?$_Tree@V?$_Tmap_traits@V?$CStringT@DV?$StrTraitMFC_DLL@DV?$ChTraitsCRT@D@ATL@@@@@ATL@@V12@U?$less@V?$CStringT@DV?$StrTraitMFC_DLL@DV?$ChTraitsCRT@D@ATL@@@@@ATL@@@std@@V?$allocator@U?$pair@$$CBV?$CStringT@DV?$StrTraitMFC_DLL@DV?$ChTraitsCRT@D@ATL@@@@@ATL@@V12@@std@@@4@$0A@@std@@@1@AB_N@Z 1002eba0 f i CrashHandler.obj
 0002:0000fc10       ?IsEqual@?$CSimpleArrayEqualHelper@H@ATL@@SA_NABH0@Z 1002ec10 f i CrashHandler.obj
 0002:0000fc60       ?_Erase@?$_Tree@V?$_Tmap_traits@V?$CStringT@DV?$StrTraitMFC_DLL@DV?$ChTraitsCRT@D@ATL@@@@@ATL@@V12@U?$less@V?$CStringT@DV?$StrTraitMFC_DLL@DV?$ChTraitsCRT@D@ATL@@@@@ATL@@@std@@V?$allocator@U?$pair@$$CBV?$CStringT@DV?$StrTraitMFC_DLL@DV?$ChTraitsCRT@D@ATL@@@@@ATL@@V12@@std@@@4@$0A@@std@@@std@@IAEXPAU_Node@?$_Tree_nod@V?$_Tmap_traits@V?$CStringT@DV?$StrTraitMFC_DLL@DV?$ChTraitsCRT@D@ATL@@@@@ATL@@V12@U?$less@V?$CStringT@DV?$StrTraitMFC_DLL@DV?$ChTraitsCRT@D@ATL@@@@@ATL@@@std@@V?$allocator@U?$pair@$$CBV?$CStringT@DV?$StrTraitMFC_DLL@DV?$ChTraitsCRT@D@ATL@@@@@ATL@@V12@@std@@@4@$0A@@std@@@2@@Z 1002ec60 f i CrashHandler.obj
 0002:0000fd30       ?_Max@?$_Tree@V?$_Tmap_traits@V?$CStringT@DV?$StrTraitMFC_DLL@DV?$ChTraitsCRT@D@ATL@@@@@ATL@@V12@U?$less@V?$CStringT@DV?$StrTraitMFC_DLL@DV?$ChTraitsCRT@D@ATL@@@@@ATL@@@std@@V?$allocator@U?$pair@$$CBV?$CStringT@DV?$StrTraitMFC_DLL@DV?$ChTraitsCRT@D@ATL@@@@@ATL@@V12@@std@@@4@$0A@@std@@@std@@KAPAU_Node@?$_Tree_nod@V?$_Tmap_traits@V?$CStringT@DV?$StrTraitMFC_DLL@DV?$ChTraitsCRT@D@ATL@@@@@ATL@@V12@U?$less@V?$CStringT@DV?$StrTraitMFC_DLL@DV?$ChTraitsCRT@D@ATL@@@@@ATL@@@std@@V?$allocator@U?$pair@$$CBV?$CStringT@DV?$StrTraitMFC_DLL@DV?$ChTraitsCRT@D@ATL@@@@@ATL@@V12@@std@@@4@$0A@@std@@@2@PAU342@@Z 1002ed30 f i CrashHandler.obj
 0002:0000fdb0       ?_Min@?$_Tree@V?$_Tmap_traits@V?$CStringT@DV?$StrTraitMFC_DLL@DV?$ChTraitsCRT@D@ATL@@@@@ATL@@V12@U?$less@V?$CStringT@DV?$StrTraitMFC_DLL@DV?$ChTraitsCRT@D@ATL@@@@@ATL@@@std@@V?$allocator@U?$pair@$$CBV?$CStringT@DV?$StrTraitMFC_DLL@DV?$ChTraitsCRT@D@ATL@@@@@ATL@@V12@@std@@@4@$0A@@std@@@std@@KAPAU_Node@?$_Tree_nod@V?$_Tmap_traits@V?$CStringT@DV?$StrTraitMFC_DLL@DV?$ChTraitsCRT@D@ATL@@@@@ATL@@V12@U?$less@V?$CStringT@DV?$StrTraitMFC_DLL@DV?$ChTraitsCRT@D@ATL@@@@@ATL@@@std@@V?$allocator@U?$pair@$$CBV?$CStringT@DV?$StrTraitMFC_DLL@DV?$ChTraitsCRT@D@ATL@@@@@ATL@@V12@@std@@@4@$0A@@std@@@2@PAU342@@Z 1002edb0 f i CrashHandler.obj
 0002:0000fe30       ?_Orphan_ptr@?$_Tree@V?$_Tmap_traits@V?$CStringT@DV?$StrTraitMFC_DLL@DV?$ChTraitsCRT@D@ATL@@@@@ATL@@V12@U?$less@V?$CStringT@DV?$StrTraitMFC_DLL@DV?$ChTraitsCRT@D@ATL@@@@@ATL@@@std@@V?$allocator@U?$pair@$$CBV?$CStringT@DV?$StrTraitMFC_DLL@DV?$ChTraitsCRT@D@ATL@@@@@ATL@@V12@@std@@@4@$0A@@std@@@std@@IBEXAAV12@PAU_Node@?$_Tree_nod@V?$_Tmap_traits@V?$CStringT@DV?$StrTraitMFC_DLL@DV?$ChTraitsCRT@D@ATL@@@@@ATL@@V12@U?$less@V?$CStringT@DV?$StrTraitMFC_DLL@DV?$ChTraitsCRT@D@ATL@@@@@ATL@@@std@@V?$allocator@U?$pair@$$CBV?$CStringT@DV?$StrTraitMFC_DLL@DV?$ChTraitsCRT@D@ATL@@@@@ATL@@V12@@std@@@4@$0A@@std@@@2@@Z 1002ee30 f i CrashHandler.obj
 0002:0000ff50       ??0?$_Tree_nod@V?$_Tmap_traits@V?$CStringT@DV?$StrTraitMFC_DLL@DV?$ChTraitsCRT@D@ATL@@@@@ATL@@V12@U?$less@V?$CStringT@DV?$StrTraitMFC_DLL@DV?$ChTraitsCRT@D@ATL@@@@@ATL@@@std@@V?$allocator@U?$pair@$$CBV?$CStringT@DV?$StrTraitMFC_DLL@DV?$ChTraitsCRT@D@ATL@@@@@ATL@@V12@@std@@@4@$0A@@std@@@std@@IAE@ABU?$less@V?$CStringT@DV?$StrTraitMFC_DLL@DV?$ChTraitsCRT@D@ATL@@@@@ATL@@@1@V?$allocator@U?$pair@$$CBV?$CStringT@DV?$StrTraitMFC_DLL@DV?$ChTraitsCRT@D@ATL@@@@@ATL@@V12@@std@@@1@@Z 1002ef50 f i CrashHandler.obj
 0002:0000ffe0       ?max_size@?$allocator@U?$pair@$$CBV?$CStringT@DV?$StrTraitMFC_DLL@DV?$ChTraitsCRT@D@ATL@@@@@ATL@@V12@@std@@@std@@QBEIXZ 1002efe0 f i CrashHandler.obj
 0002:00010050       ?allocate@?$allocator@U_Node@?$_Tree_nod@V?$_Tmap_traits@V?$CStringT@DV?$StrTraitMFC_DLL@DV?$ChTraitsCRT@D@ATL@@@@@ATL@@V12@U?$less@V?$CStringT@DV?$StrTraitMFC_DLL@DV?$ChTraitsCRT@D@ATL@@@@@ATL@@@std@@V?$allocator@U?$pair@$$CBV?$CStringT@DV?$StrTraitMFC_DLL@DV?$ChTraitsCRT@D@ATL@@@@@ATL@@V12@@std@@@4@$0A@@std@@@std@@@std@@QAEPAU_Node@?$_Tree_nod@V?$_Tmap_traits@V?$CStringT@DV?$StrTraitMFC_DLL@DV?$ChTraitsCRT@D@ATL@@@@@ATL@@V12@U?$less@V?$CStringT@DV?$StrTraitMFC_DLL@DV?$ChTraitsCRT@D@ATL@@@@@ATL@@@std@@V?$allocator@U?$pair@$$CBV?$CStringT@DV?$StrTraitMFC_DLL@DV?$ChTraitsCRT@D@ATL@@@@@ATL@@V12@@std@@@4@$0A@@std@@@2@I@Z 1002f050 f i CrashHandler.obj
 0002:000100b0       ?destroy@?$allocator@U_Node@?$_Tree_nod@V?$_Tmap_traits@V?$CStringT@DV?$StrTraitMFC_DLL@DV?$ChTraitsCRT@D@ATL@@@@@ATL@@V12@U?$less@V?$CStringT@DV?$StrTraitMFC_DLL@DV?$ChTraitsCRT@D@ATL@@@@@ATL@@@std@@V?$allocator@U?$pair@$$CBV?$CStringT@DV?$StrTraitMFC_DLL@DV?$ChTraitsCRT@D@ATL@@@@@ATL@@V12@@std@@@4@$0A@@std@@@std@@@std@@QAEXPAU_Node@?$_Tree_nod@V?$_Tmap_traits@V?$CStringT@DV?$StrTraitMFC_DLL@DV?$ChTraitsCRT@D@ATL@@@@@ATL@@V12@U?$less@V?$CStringT@DV?$StrTraitMFC_DLL@DV?$ChTraitsCRT@D@ATL@@@@@ATL@@@std@@V?$allocator@U?$pair@$$CBV?$CStringT@DV?$StrTraitMFC_DLL@DV?$ChTraitsCRT@D@ATL@@@@@ATL@@V12@@std@@@4@$0A@@std@@@2@@Z 1002f0b0 f i CrashHandler.obj
 0002:00010110       ?construct@?$allocator@PAU_Node@?$_Tree_nod@V?$_Tmap_traits@V?$CStringT@DV?$StrTraitMFC_DLL@DV?$ChTraitsCRT@D@ATL@@@@@ATL@@V12@U?$less@V?$CStringT@DV?$StrTraitMFC_DLL@DV?$ChTraitsCRT@D@ATL@@@@@ATL@@@std@@V?$allocator@U?$pair@$$CBV?$CStringT@DV?$StrTraitMFC_DLL@DV?$ChTraitsCRT@D@ATL@@@@@ATL@@V12@@std@@@4@$0A@@std@@@std@@@std@@QAEXPAPAU_Node@?$_Tree_nod@V?$_Tmap_traits@V?$CStringT@DV?$StrTraitMFC_DLL@DV?$ChTraitsCRT@D@ATL@@@@@ATL@@V12@U?$less@V?$CStringT@DV?$StrTraitMFC_DLL@DV?$ChTraitsCRT@D@ATL@@@@@ATL@@@std@@V?$allocator@U?$pair@$$CBV?$CStringT@DV?$StrTraitMFC_DLL@DV?$ChTraitsCRT@D@ATL@@@@@ATL@@V12@@std@@@4@$0A@@std@@@2@ABQAU342@@Z 1002f110 f i CrashHandler.obj
 0002:00010170       ??0_Node@?$_Tree_nod@V?$_Tmap_traits@V?$CStringT@DV?$StrTraitMFC_DLL@DV?$ChTraitsCRT@D@ATL@@@@@ATL@@V12@U?$less@V?$CStringT@DV?$StrTraitMFC_DLL@DV?$ChTraitsCRT@D@ATL@@@@@ATL@@@std@@V?$allocator@U?$pair@$$CBV?$CStringT@DV?$StrTraitMFC_DLL@DV?$ChTraitsCRT@D@ATL@@@@@ATL@@V12@@std@@@4@$0A@@std@@@std@@QAE@PAU012@00ABU?$pair@$$CBV?$CStringT@DV?$StrTraitMFC_DLL@DV?$ChTraitsCRT@D@ATL@@@@@ATL@@V12@@2@D@Z 1002f170 f i CrashHandler.obj
 0002:00010210       ??0?$pair@$$CBV?$CStringT@DV?$StrTraitMFC_DLL@DV?$ChTraitsCRT@D@ATL@@@@@ATL@@V12@@std@@QAE@ABU01@@Z 1002f210 f i CrashHandler.obj
 0002:000102e0       ??0?$_Tmap_traits@V?$CStringT@DV?$StrTraitMFC_DLL@DV?$ChTraitsCRT@D@ATL@@@@@ATL@@V12@U?$less@V?$CStringT@DV?$StrTraitMFC_DLL@DV?$ChTraitsCRT@D@ATL@@@@@ATL@@@std@@V?$allocator@U?$pair@$$CBV?$CStringT@DV?$StrTraitMFC_DLL@DV?$ChTraitsCRT@D@ATL@@@@@ATL@@V12@@std@@@4@$0A@@std@@QAE@U?$less@V?$CStringT@DV?$StrTraitMFC_DLL@DV?$ChTraitsCRT@D@ATL@@@@@ATL@@@1@V?$allocator@U?$pair@$$CBV?$CStringT@DV?$StrTraitMFC_DLL@DV?$ChTraitsCRT@D@ATL@@@@@ATL@@V12@@std@@@1@@Z 1002f2e0 f i CrashHandler.obj
 0002:00010350       ??0?$_Container_base_aux_alloc_empty@V?$allocator@U?$pair@$$CBV?$CStringT@DV?$StrTraitMFC_DLL@DV?$ChTraitsCRT@D@ATL@@@@@ATL@@V12@@std@@@std@@@std@@IAE@V?$allocator@U?$pair@$$CBV?$CStringT@DV?$StrTraitMFC_DLL@DV?$ChTraitsCRT@D@ATL@@@@@ATL@@V12@@std@@@1@@Z 1002f350 f i CrashHandler.obj
 0002:000103c0       ??1?$CSimpleArray@V?$CStringT@DV?$StrTraitMFC_DLL@DV?$ChTraitsCRT@D@ATL@@@@@ATL@@V?$CSimpleArrayEqualHelper@V?$CStringT@DV?$StrTraitMFC_DLL@DV?$ChTraitsCRT@D@ATL@@@@@ATL@@@2@@ATL@@QAE@XZ 1002f3c0 f i CrashHandler.obj
 0002:00010410       ??$bit_cast@U_FILETIME@@_J@@YA?AU_FILETIME@@AB_J@Z 1002f410 f i CrashHandler.obj
 0002:000104b0       ??$?6U?$char_traits@D@std@@@std@@YAAAV?$basic_ostream@DU?$char_traits@D@std@@@0@AAV10@PBD@Z 1002f4b0 f i CrashHandler.obj
 0002:00010a30       ??0sentry@?$basic_ostream@DU?$char_traits@D@std@@@std@@QAE@AAV12@@Z 1002fa30 f i CrashHandler.obj
 0002:00010b90       ??1sentry@?$basic_ostream@DU?$char_traits@D@std@@@std@@QAE@XZ 1002fb90 f i CrashHandler.obj
 0002:00010c60       ??Bsentry@?$basic_ostream@DU?$char_traits@D@std@@@std@@QBE_NXZ 1002fc60 f i CrashHandler.obj
 0002:00010ca0       ??0_Sentry_base@?$basic_ostream@DU?$char_traits@D@std@@@std@@QAE@AAV12@@Z 1002fca0 f i CrashHandler.obj
 0002:00010d60       ??1_Sentry_base@?$basic_ostream@DU?$char_traits@D@std@@@std@@QAE@XZ 1002fd60 f i CrashHandler.obj
 0002:00010e10       ??$_Debug_lt_pred@U?$less@V?$CStringT@DV?$StrTraitMFC_DLL@DV?$ChTraitsCRT@D@ATL@@@@@ATL@@@std@@V?$CStringT@DV?$StrTraitMFC_DLL@DV?$ChTraitsCRT@D@ATL@@@@@ATL@@V34@@std@@YA_NU?$less@V?$CStringT@DV?$StrTraitMFC_DLL@DV?$ChTraitsCRT@D@ATL@@@@@ATL@@@0@ABV?$CStringT@DV?$StrTraitMFC_DLL@DV?$ChTraitsCRT@D@ATL@@@@@ATL@@1PB_WI@Z 1002fe10 f i CrashHandler.obj
 0002:00010ec0       ??$?2H@?$Wrapper@H@?$CSimpleMap@HPAVCCrashHandler@@V?$CSimpleMapEqualHelper@HPAVCCrashHandler@@@ATL@@@ATL@@SAPAXIPAH@Z 1002fec0 f i CrashHandler.obj
 0002:00010f00       ??$?3H@?$Wrapper@H@?$CSimpleMap@HPAVCCrashHandler@@V?$CSimpleMapEqualHelper@HPAVCCrashHandler@@@ATL@@@ATL@@SAXPAXPAH@Z 1002ff00 f i CrashHandler.obj
 0002:00010f30       ??$?2PAVCCrashHandler@@@?$Wrapper@PAVCCrashHandler@@@?$CSimpleMap@HPAVCCrashHandler@@V?$CSimpleMapEqualHelper@HPAVCCrashHandler@@@ATL@@@ATL@@SAPAXIPAPAVCCrashHandler@@@Z 1002ff30 f i CrashHandler.obj
 0002:00010f70       ??$?3PAVCCrashHandler@@@?$Wrapper@PAVCCrashHandler@@@?$CSimpleMap@HPAVCCrashHandler@@V?$CSimpleMapEqualHelper@HPAVCCrashHandler@@@ATL@@@ATL@@SAXPAXPAPAVCCrashHandler@@@Z 1002ff70 f i CrashHandler.obj
 0002:00010fa0       ??$_Destroy@PAU_Node@?$_Tree_nod@V?$_Tmap_traits@V?$CStringT@DV?$StrTraitMFC_DLL@DV?$ChTraitsCRT@D@ATL@@@@@ATL@@V12@U?$less@V?$CStringT@DV?$StrTraitMFC_DLL@DV?$ChTraitsCRT@D@ATL@@@@@ATL@@@std@@V?$allocator@U?$pair@$$CBV?$CStringT@DV?$StrTraitMFC_DLL@DV?$ChTraitsCRT@D@ATL@@@@@ATL@@V12@@std@@@4@$0A@@std@@@std@@@std@@YAXPAPAU_Node@?$_Tree_nod@V?$_Tmap_traits@V?$CStringT@DV?$StrTraitMFC_DLL@DV?$ChTraitsCRT@D@ATL@@@@@ATL@@V12@U?$less@V?$CStringT@DV?$StrTraitMFC_DLL@DV?$ChTraitsCRT@D@ATL@@@@@ATL@@@std@@V?$allocator@U?$pair@$$CBV?$CStringT@DV?$StrTraitMFC_DLL@DV?$ChTraitsCRT@D@ATL@@@@@ATL@@V12@@std@@@4@$0A@@std@@@0@@Z 1002ffa0 f i CrashHandler.obj
 0002:00010fd0       ??$swap@D@std@@YAXAAD0@Z   1002ffd0 f i CrashHandler.obj
 0002:00011030       ??$?0U?$pair@$$CBV?$CStringT@DV?$StrTraitMFC_DLL@DV?$ChTraitsCRT@D@ATL@@@@@ATL@@V12@@std@@@?$allocator@PAU_Node@?$_Tree_nod@V?$_Tmap_traits@V?$CStringT@DV?$StrTraitMFC_DLL@DV?$ChTraitsCRT@D@ATL@@@@@ATL@@V12@U?$less@V?$CStringT@DV?$StrTraitMFC_DLL@DV?$ChTraitsCRT@D@ATL@@@@@ATL@@@std@@V?$allocator@U?$pair@$$CBV?$CStringT@DV?$StrTraitMFC_DLL@DV?$ChTraitsCRT@D@ATL@@@@@ATL@@V12@@std@@@4@$0A@@std@@@std@@@std@@QAE@ABV?$allocator@U?$pair@$$CBV?$CStringT@DV?$StrTraitMFC_DLL@DV?$ChTraitsCRT@D@ATL@@@@@ATL@@V12@@std@@@1@@Z 10030030 f i CrashHandler.obj
 0002:00011070       ??$?0U?$pair@$$CBV?$CStringT@DV?$StrTraitMFC_DLL@DV?$ChTraitsCRT@D@ATL@@@@@ATL@@V12@@std@@@?$allocator@U_Node@?$_Tree_nod@V?$_Tmap_traits@V?$CStringT@DV?$StrTraitMFC_DLL@DV?$ChTraitsCRT@D@ATL@@@@@ATL@@V12@U?$less@V?$CStringT@DV?$StrTraitMFC_DLL@DV?$ChTraitsCRT@D@ATL@@@@@ATL@@@std@@V?$allocator@U?$pair@$$CBV?$CStringT@DV?$StrTraitMFC_DLL@DV?$ChTraitsCRT@D@ATL@@@@@ATL@@V12@@std@@@4@$0A@@std@@@std@@@std@@QAE@ABV?$allocator@U?$pair@$$CBV?$CStringT@DV?$StrTraitMFC_DLL@DV?$ChTraitsCRT@D@ATL@@@@@ATL@@V12@@std@@@1@@Z 10030070 f i CrashHandler.obj
 0002:000110b0       ??$_Allocate@U_Node@?$_Tree_nod@V?$_Tmap_traits@V?$CStringT@DV?$StrTraitMFC_DLL@DV?$ChTraitsCRT@D@ATL@@@@@ATL@@V12@U?$less@V?$CStringT@DV?$StrTraitMFC_DLL@DV?$ChTraitsCRT@D@ATL@@@@@ATL@@@std@@V?$allocator@U?$pair@$$CBV?$CStringT@DV?$StrTraitMFC_DLL@DV?$ChTraitsCRT@D@ATL@@@@@ATL@@V12@@std@@@4@$0A@@std@@@std@@@std@@YAPAU_Node@?$_Tree_nod@V?$_Tmap_traits@V?$CStringT@DV?$StrTraitMFC_DLL@DV?$ChTraitsCRT@D@ATL@@@@@ATL@@V12@U?$less@V?$CStringT@DV?$StrTraitMFC_DLL@DV?$ChTraitsCRT@D@ATL@@@@@ATL@@@std@@V?$allocator@U?$pair@$$CBV?$CStringT@DV?$StrTraitMFC_DLL@DV?$ChTraitsCRT@D@ATL@@@@@ATL@@V12@@std@@@4@$0A@@std@@@0@IPAU120@@Z 100300b0 f i CrashHandler.obj
 0002:00011150       ??0bad_alloc@std@@QAE@PBD@Z 10030150 f i CrashHandler.obj
 0002:000111d0       ??1bad_alloc@std@@UAE@XZ   100301d0 f i CrashHandler.obj
 0002:00011240       ??_Ebad_alloc@std@@UAEPAXI@Z 10030240 f i CrashHandler.obj
 0002:00011240       ??_Gbad_alloc@std@@UAEPAXI@Z 10030240 f i CrashHandler.obj
 0002:000112b0       ??0bad_alloc@std@@QAE@ABV01@@Z 100302b0 f i CrashHandler.obj
 0002:00011330       ??$_Destroy@U_Node@?$_Tree_nod@V?$_Tmap_traits@V?$CStringT@DV?$StrTraitMFC_DLL@DV?$ChTraitsCRT@D@ATL@@@@@ATL@@V12@U?$less@V?$CStringT@DV?$StrTraitMFC_DLL@DV?$ChTraitsCRT@D@ATL@@@@@ATL@@@std@@V?$allocator@U?$pair@$$CBV?$CStringT@DV?$StrTraitMFC_DLL@DV?$ChTraitsCRT@D@ATL@@@@@ATL@@V12@@std@@@4@$0A@@std@@@std@@@std@@YAXPAU_Node@?$_Tree_nod@V?$_Tmap_traits@V?$CStringT@DV?$StrTraitMFC_DLL@DV?$ChTraitsCRT@D@ATL@@@@@ATL@@V12@U?$less@V?$CStringT@DV?$StrTraitMFC_DLL@DV?$ChTraitsCRT@D@ATL@@@@@ATL@@@std@@V?$allocator@U?$pair@$$CBV?$CStringT@DV?$StrTraitMFC_DLL@DV?$ChTraitsCRT@D@ATL@@@@@ATL@@V12@@std@@@4@$0A@@std@@@0@@Z 10030330 f i CrashHandler.obj
 0002:00011380       ??$_Construct@PAU_Node@?$_Tree_nod@V?$_Tmap_traits@V?$CStringT@DV?$StrTraitMFC_DLL@DV?$ChTraitsCRT@D@ATL@@@@@ATL@@V12@U?$less@V?$CStringT@DV?$StrTraitMFC_DLL@DV?$ChTraitsCRT@D@ATL@@@@@ATL@@@std@@V?$allocator@U?$pair@$$CBV?$CStringT@DV?$StrTraitMFC_DLL@DV?$ChTraitsCRT@D@ATL@@@@@ATL@@V12@@std@@@4@$0A@@std@@@std@@PAU123@@std@@YAXPAPAU_Node@?$_Tree_nod@V?$_Tmap_traits@V?$CStringT@DV?$StrTraitMFC_DLL@DV?$ChTraitsCRT@D@ATL@@@@@ATL@@V12@U?$less@V?$CStringT@DV?$StrTraitMFC_DLL@DV?$ChTraitsCRT@D@ATL@@@@@ATL@@@std@@V?$allocator@U?$pair@$$CBV?$CStringT@DV?$StrTraitMFC_DLL@DV?$ChTraitsCRT@D@ATL@@@@@ATL@@V12@@std@@@4@$0A@@std@@@0@ABQAU120@@Z 10030380 f i CrashHandler.obj
 0002:00011420       ??_G_Node@?$_Tree_nod@V?$_Tmap_traits@V?$CStringT@DV?$StrTraitMFC_DLL@DV?$ChTraitsCRT@D@ATL@@@@@ATL@@V12@U?$less@V?$CStringT@DV?$StrTraitMFC_DLL@DV?$ChTraitsCRT@D@ATL@@@@@ATL@@@std@@V?$allocator@U?$pair@$$CBV?$CStringT@DV?$StrTraitMFC_DLL@DV?$ChTraitsCRT@D@ATL@@@@@ATL@@V12@@std@@@4@$0A@@std@@@std@@QAEPAXI@Z 10030420 f i CrashHandler.obj
 0002:00011490       ??1_Node@?$_Tree_nod@V?$_Tmap_traits@V?$CStringT@DV?$StrTraitMFC_DLL@DV?$ChTraitsCRT@D@ATL@@@@@ATL@@V12@U?$less@V?$CStringT@DV?$StrTraitMFC_DLL@DV?$ChTraitsCRT@D@ATL@@@@@ATL@@@std@@V?$allocator@U?$pair@$$CBV?$CStringT@DV?$StrTraitMFC_DLL@DV?$ChTraitsCRT@D@ATL@@@@@ATL@@V12@@std@@@4@$0A@@std@@@std@@QAE@XZ 10030490 f i CrashHandler.obj
 0002:000114f0       ?RemoveAll@?$CSimpleArray@V?$CStringT@DV?$StrTraitMFC_DLL@DV?$ChTraitsCRT@D@ATL@@@@@ATL@@V?$CSimpleArrayEqualHelper@V?$CStringT@DV?$StrTraitMFC_DLL@DV?$ChTraitsCRT@D@ATL@@@@@ATL@@@2@@ATL@@QAEXXZ 100304f0 f i CrashHandler.obj
 0002:000115c0       ??_G?$CStringT@DV?$StrTraitMFC_DLL@DV?$ChTraitsCRT@D@ATL@@@@@ATL@@QAEPAXI@Z 100305c0 f i CrashHandler.obj
 0002:00011640       ??0?$CSimpleMap@HPAVCCrashHandler@@V?$CSimpleMapEqualHelper@HPAVCCrashHandler@@@ATL@@@ATL@@QAE@XZ 10030640 f i CrashHandler.obj
 0002:000116a0       ??1?$CSimpleMap@HPAVCCrashHandler@@V?$CSimpleMapEqualHelper@HPAVCCrashHandler@@@ATL@@@ATL@@QAE@XZ 100306a0 f i CrashHandler.obj
 0002:000116f0       ?RemoveAll@?$CSimpleMap@HPAVCCrashHandler@@V?$CSimpleMapEqualHelper@HPAVCCrashHandler@@@ATL@@@ATL@@QAEXXZ 100306f0 f i CrashHandler.obj
 0002:000117e0       _InstallCrashRpt           100307e0 f   CrashRpt.obj
 0002:00011950       ?ReInstall@@YAXXZ          10030950 f   CrashRpt.obj
 0002:00011bf0       _UninstallCrashRpt         10030bf0 f   CrashRpt.obj
 0002:00011cc0       _AddFile                   10030cc0 f   CrashRpt.obj
 0002:00011d40       _GenerateErrorReport       10030d40 f   CrashRpt.obj
 0002:00011dc0       ?XORCode@@YA?AV?$CStringT@DV?$StrTraitMFC_DLL@DV?$ChTraitsCRT@D@ATL@@@@@ATL@@ABV12@@Z 10030dc0 f   CrashRpt.obj
 0002:00011fe0       _SetReportOptions          10030fe0 f   CrashRpt.obj
 0002:000121c0       ??0tagREPORTOPTION@@QAE@XZ 100311c0 f i CrashRpt.obj
 0002:000122d0       ??1tagREPORTOPTION@@QAE@XZ 100312d0 f i CrashRpt.obj
 0002:000123d0       ?GetMessageMap@CErrorReportApp@@MBEPBUAFX_MSGMAP@@XZ 100313d0 f   ErrorReport.obj
 0002:00012420       ?GetThisMessageMap@CErrorReportApp@@KGPBUAFX_MSGMAP@@XZ 10031420 f   ErrorReport.obj
 0002:00012460       ??0CErrorReportApp@@QAE@XZ 10031460 f   ErrorReport.obj
 0002:000124c0       ??_ECErrorReportApp@@UAEPAXI@Z 100314c0 f i ErrorReport.obj
 0002:000124c0       ??_GCErrorReportApp@@UAEPAXI@Z 100314c0 f i ErrorReport.obj
 0002:00012530       ??1CErrorReportApp@@UAE@XZ 10031530 f i ErrorReport.obj
 0002:00012580       ?InitInstance@CErrorReportApp@@UAEHXZ 10031580 f   ErrorReport.obj
 0002:000125e0       ??0CExceptionReport@@QAE@PAU_EXCEPTION_POINTERS@@@Z 100315e0 f   excprpt.obj
 0002:00012650       ?getCrashFile@CExceptionReport@@QAE?AV?$CStringT@DV?$StrTraitMFC_DLL@DV?$ChTraitsCRT@D@ATL@@@@@ATL@@XZ 10031650 f   excprpt.obj
 0002:00012940       ?getCrashLog@CExceptionReport@@QAE?AV?$CStringT@DV?$StrTraitMFC_DLL@DV?$ChTraitsCRT@D@ATL@@@@@ATL@@XZ 10031940 f   excprpt.obj
 0002:00013060       ?getDescriptionFile@CExceptionReport@@QAE?AV?$CStringT@DV?$StrTraitMFC_DLL@DV?$ChTraitsCRT@D@ATL@@@@@ATL@@V23@00@Z 10032060 f   excprpt.obj
 0002:00013980       ?getNumSymbolFiles@CExceptionReport@@QAEHXZ 10032980 f   excprpt.obj
 0002:000139e0       ?getSymbolFile@CExceptionReport@@QAE?AV?$CStringT@DV?$StrTraitMFC_DLL@DV?$ChTraitsCRT@D@ATL@@@@@ATL@@H@Z 100329e0 f   excprpt.obj
 0002:00013b60       ?CreateDOMNode@CExceptionReport@@CAPAUIXMLDOMNode@@PAUIXMLDOMDocument@@HPA_W@Z 10032b60 f   excprpt.obj
 0002:00013c60       ?CreateExceptionRecordNode@CExceptionReport@@CAPAUIXMLDOMNode@@PAUIXMLDOMDocument@@PAU_EXCEPTION_RECORD@@@Z 10032c60 f   excprpt.obj
 0002:00014770       ?A2BSTR@@YAPA_WPBD@Z       10033770 f i excprpt.obj
 0002:000147c0       ?A2WBSTR@@YAPA_WPBDH@Z     100337c0 f i excprpt.obj
 0002:00014a30       ?_AtlGetConversionACP@ATL@@YGIXZ 10033a30 f i excprpt.obj
 0002:00014a70       ?CreateProcessorNode@CExceptionReport@@CAPAUIXMLDOMNode@@PAUIXMLDOMDocument@@@Z 10033a70 f   excprpt.obj
 0002:000150b0       ?CreateOSNode@CExceptionReport@@CAPAUIXMLDOMNode@@PAUIXMLDOMDocument@@@Z 100340b0 f   excprpt.obj
 0002:00015540       ?GetFileSize@CExceptionReport@@CAKPB_W@Z 10034540 f   excprpt.obj
 0002:00015610       ?CreateModulesNode@CExceptionReport@@CAPAUIXMLDOMNode@@PAUIXMLDOMDocument@@@Z 10034610 f   excprpt.obj
 0002:00015fa0       ?W2BSTR@@YAPA_WPB_W@Z      10034fa0 f i excprpt.obj
 0002:00016000       ?miniDumpCallback@CExceptionReport@@CGHPAXQAU_MINIDUMP_CALLBACK_INPUT@@PAU_MINIDUMP_CALLBACK_OUTPUT@@@Z 10035000 f   excprpt.obj
 0002:00016160       ??0?$CAtlSafeAllocBufferManager@VCCRTAllocator@ATL@@@_ATL_SAFE_ALLOCA_IMPL@ATL@@QAE@XZ 10035160 f i excprpt.obj
 0002:000161b0       ??1?$CAtlSafeAllocBufferManager@VCCRTAllocator@ATL@@@_ATL_SAFE_ALLOCA_IMPL@ATL@@QAE@XZ 100351b0 f i excprpt.obj
 0002:00016230       ?Free@CCRTAllocator@ATL@@SAXPAX@Z 10035230 f i excprpt.obj
 0002:00016290       ??HATL@@YA?AV?$CStringT@DV?$StrTraitMFC_DLL@DV?$ChTraitsCRT@D@ATL@@@@@0@ABV10@0@Z 10035290 f i excprpt.obj
 0002:00016450       ??0?$CSimpleArray@V?$CStringT@DV?$StrTraitMFC_DLL@DV?$ChTraitsCRT@D@ATL@@@@@ATL@@V?$CSimpleArrayEqualHelper@V?$CStringT@DV?$StrTraitMFC_DLL@DV?$ChTraitsCRT@D@ATL@@@@@ATL@@@2@@ATL@@QAE@XZ 10035450 f i excprpt.obj
 0002:000164b0       ?GetSize@?$CSimpleArray@V?$CStringT@DV?$StrTraitMFC_DLL@DV?$ChTraitsCRT@D@ATL@@@@@ATL@@V?$CSimpleArrayEqualHelper@V?$CStringT@DV?$StrTraitMFC_DLL@DV?$ChTraitsCRT@D@ATL@@@@@ATL@@@2@@ATL@@QBEHXZ 100354b0 f i excprpt.obj
 0002:000164f0       ??A?$CSimpleArray@V?$CStringT@DV?$StrTraitMFC_DLL@DV?$ChTraitsCRT@D@ATL@@@@@ATL@@V?$CSimpleArrayEqualHelper@V?$CStringT@DV?$StrTraitMFC_DLL@DV?$ChTraitsCRT@D@ATL@@@@@ATL@@@2@@ATL@@QAEAAV?$CStringT@DV?$StrTraitMFC_DLL@DV?$ChTraitsCRT@D@ATL@@@@@1@H@Z 100354f0 f i excprpt.obj
 0002:000165c0       ??0CHTTPUploadFile@@QAE@XZ 100355c0 f   HTTPUploadFile.obj
 0002:000166d0       ??_GCHTTPUploadFile@@UAEPAXI@Z 100356d0 f i HTTPUploadFile.obj
 0002:000166d0       ??_ECHTTPUploadFile@@UAEPAXI@Z 100356d0 f i HTTPUploadFile.obj
 0002:00016740       ??1CHTTPUploadFile@@UAE@XZ 10035740 f   HTTPUploadFile.obj
 0002:00016810       ?Connect@CHTTPUploadFile@@QAEHPBD0G00@Z 10035810 f   HTTPUploadFile.obj
 0002:00016a60       ?Close@CHTTPUploadFile@@QAEHXZ 10035a60 f   HTTPUploadFile.obj
 0002:00016b70       ?InitilizePostArguments@CHTTPUploadFile@@QAEXXZ 10035b70 f   HTTPUploadFile.obj
 0002:00016bc0       ?AddPostArguments@CHTTPUploadFile@@QAEXPBDK@Z 10035bc0 f   HTTPUploadFile.obj
 0002:00016d00       ?AddPostArguments@CHTTPUploadFile@@QAEXPBD0H@Z 10035d00 f   HTTPUploadFile.obj
 0002:00016e50       ?Request@CHTTPUploadFile@@QAEHPBD0@Z 10035e50 f   HTTPUploadFile.obj
 0002:000170a0       ?RequestPostMultiPartsFormData@CHTTPUploadFile@@IAEHPBD@Z 100360a0 f   HTTPUploadFile.obj
 0002:000173b0       ??1?$_Vector_iterator@U_HTTP_POST_DATA@CHTTPUploadFile@@V?$allocator@U_HTTP_POST_DATA@CHTTPUploadFile@@@std@@@std@@QAE@XZ 100363b0 f i HTTPUploadFile.obj
 0002:00017400       ??4?$_Vector_iterator@U_HTTP_POST_DATA@CHTTPUploadFile@@V?$allocator@U_HTTP_POST_DATA@CHTTPUploadFile@@@std@@@std@@QAEAAV01@ABV01@@Z 10036400 f i HTTPUploadFile.obj
 0002:00017460       ??1?$_Vector_const_iterator@U_HTTP_POST_DATA@CHTTPUploadFile@@V?$allocator@U_HTTP_POST_DATA@CHTTPUploadFile@@@std@@@std@@QAE@XZ 10036460 f i HTTPUploadFile.obj
 0002:000174b0       ??4?$_Vector_const_iterator@U_HTTP_POST_DATA@CHTTPUploadFile@@V?$allocator@U_HTTP_POST_DATA@CHTTPUploadFile@@@std@@@std@@QAEAAV01@ABV01@@Z 100364b0 f i HTTPUploadFile.obj
 0002:00017520       ??1?$_Ranit@U_HTTP_POST_DATA@CHTTPUploadFile@@HPBU12@ABU12@@std@@QAE@XZ 10036520 f i HTTPUploadFile.obj
 0002:00017570       ??4?$_Ranit@U_HTTP_POST_DATA@CHTTPUploadFile@@HPBU12@ABU12@@std@@QAEAAU01@ABU01@@Z 10036570 f i HTTPUploadFile.obj
 0002:000175d0       ??1?$_Iterator_with_base@Urandom_access_iterator_tag@std@@U_HTTP_POST_DATA@CHTTPUploadFile@@HPBU34@ABU34@V_Iterator_base@2@@std@@QAE@XZ 100365d0 f i HTTPUploadFile.obj
 0002:00017620       ??4?$_Iterator_with_base@Urandom_access_iterator_tag@std@@U_HTTP_POST_DATA@CHTTPUploadFile@@HPBU34@ABU34@V_Iterator_base@2@@std@@QAEAAU01@ABU01@@Z 10036620 f i HTTPUploadFile.obj
 0002:00017680       ?SendPostRequest@CHTTPUploadFile@@IAEHPBDPAEKKK@Z 10036680 f   HTTPUploadFile.obj
 0002:00017d00       ?GetNormalPostArgvSize@CHTTPUploadFile@@IAEKXZ 10036d00 f   HTTPUploadFile.obj
 0002:00017d50       ?GenerateNormalPostData@CHTTPUploadFile@@IAEKPBDPAE@Z 10036d50 f   HTTPUploadFile.obj
 0002:00018010       ??1?$_Vector_iterator@U_HTTP_UPLOAD_FILE_ARGUMENT@CHTTPUploadFile@@V?$allocator@U_HTTP_UPLOAD_FILE_ARGUMENT@CHTTPUploadFile@@@std@@@std@@QAE@XZ 10037010 f i HTTPUploadFile.obj
 0002:00018060       ??4?$_Vector_iterator@U_HTTP_UPLOAD_FILE_ARGUMENT@CHTTPUploadFile@@V?$allocator@U_HTTP_UPLOAD_FILE_ARGUMENT@CHTTPUploadFile@@@std@@@std@@QAEAAV01@ABV01@@Z 10037060 f i HTTPUploadFile.obj
 0002:000180c0       ??1?$_Vector_const_iterator@U_HTTP_UPLOAD_FILE_ARGUMENT@CHTTPUploadFile@@V?$allocator@U_HTTP_UPLOAD_FILE_ARGUMENT@CHTTPUploadFile@@@std@@@std@@QAE@XZ 100370c0 f i HTTPUploadFile.obj
 0002:00018110       ??4?$_Vector_const_iterator@U_HTTP_UPLOAD_FILE_ARGUMENT@CHTTPUploadFile@@V?$allocator@U_HTTP_UPLOAD_FILE_ARGUMENT@CHTTPUploadFile@@@std@@@std@@QAEAAV01@ABV01@@Z 10037110 f i HTTPUploadFile.obj
 0002:00018180       ??1?$_Ranit@U_HTTP_UPLOAD_FILE_ARGUMENT@CHTTPUploadFile@@HPBU12@ABU12@@std@@QAE@XZ 10037180 f i HTTPUploadFile.obj
 0002:000181d0       ??4?$_Ranit@U_HTTP_UPLOAD_FILE_ARGUMENT@CHTTPUploadFile@@HPBU12@ABU12@@std@@QAEAAU01@ABU01@@Z 100371d0 f i HTTPUploadFile.obj
 0002:00018230       ??1?$_Iterator_with_base@Urandom_access_iterator_tag@std@@U_HTTP_UPLOAD_FILE_ARGUMENT@CHTTPUploadFile@@HPBU34@ABU34@V_Iterator_base@2@@std@@QAE@XZ 10037230 f i HTTPUploadFile.obj
 0002:00018280       ??4?$_Iterator_with_base@Urandom_access_iterator_tag@std@@U_HTTP_UPLOAD_FILE_ARGUMENT@CHTTPUploadFile@@HPBU34@ABU34@V_Iterator_base@2@@std@@QAEAAU01@ABU01@@Z 10037280 f i HTTPUploadFile.obj
 0002:000182e0       ?AllocMultiPartsFormData@CHTTPUploadFile@@IAEKPBD@Z 100372e0 f   HTTPUploadFile.obj
 0002:000189b0       ?Response@CHTTPUploadFile@@QAEHPAEK0KAAK@Z 100379b0 f   HTTPUploadFile.obj
 0002:00018c20       ?QueryHTTPResponse@CHTTPUploadFile@@QAEPBDXZ 10037c20 f   HTTPUploadFile.obj
 0002:00018c60       ?QueryHTTPResponseHeader@CHTTPUploadFile@@QAEPBDXZ 10037c60 f   HTTPUploadFile.obj
 0002:00018ca0       ?GetError@CHTTPUploadFile@@QAEKXZ 10037ca0 f   HTTPUploadFile.obj
 0002:00018ce0       ?GetContentType@CHTTPUploadFile@@QAEPBDPBD@Z 10037ce0 f   HTTPUploadFile.obj
 0002:00018eb0       __tcsncpy                  10037eb0 f i HTTPUploadFile.obj
 0002:00018f20       __tcsncmp                  10037f20 f i HTTPUploadFile.obj
 0002:00018f90       ?GetArgumentCount@CHTTPUploadFile@@QAEHXZ 10037f90 f   HTTPUploadFile.obj
 0002:00018ff0       ?ResponseOfBytes@CHTTPUploadFile@@IAEKPAEK@Z 10037ff0 f   HTTPUploadFile.obj
 0002:000190e0       ?FreeMultiPartsFormData@CHTTPUploadFile@@IAEXXZ 100380e0 f   HTTPUploadFile.obj
 0002:00019300       ?AddPostData@CHTTPUploadFile@@IAEXPAEK@Z 10038300 f   HTTPUploadFile.obj
 0002:000193a0       ?ParseURL@CHTTPUploadFile@@QAEXPBDPAD1AAK1@Z 100383a0 f   HTTPUploadFile.obj
 0002:00019870       __tcscmp                   10038870 f i HTTPUploadFile.obj
 0002:000198d0       ?GetFilesSize@CHTTPUploadFile@@QAEKXZ 100388d0 f   HTTPUploadFile.obj
 0002:00019b50       ?FreePostArguments@CHTTPUploadFile@@IAEXXZ 10038b50 f   HTTPUploadFile.obj
 0002:00019bd0       ?CancelUpload@CHTTPUploadFile@@QAEXXZ 10038bd0 f   HTTPUploadFile.obj
 0002:00019c30       ??0?$vector@U_HTTP_UPLOAD_FILE_ARGUMENT@CHTTPUploadFile@@V?$allocator@U_HTTP_UPLOAD_FILE_ARGUMENT@CHTTPUploadFile@@@std@@@std@@QAE@XZ 10038c30 f i HTTPUploadFile.obj
 0002:00019cf0       ??1?$vector@U_HTTP_UPLOAD_FILE_ARGUMENT@CHTTPUploadFile@@V?$allocator@U_HTTP_UPLOAD_FILE_ARGUMENT@CHTTPUploadFile@@@std@@@std@@QAE@XZ 10038cf0 f i HTTPUploadFile.obj
 0002:00019d90       ?begin@?$vector@U_HTTP_UPLOAD_FILE_ARGUMENT@CHTTPUploadFile@@V?$allocator@U_HTTP_UPLOAD_FILE_ARGUMENT@CHTTPUploadFile@@@std@@@std@@QAE?AV?$_Vector_iterator@U_HTTP_UPLOAD_FILE_ARGUMENT@CHTTPUploadFile@@V?$allocator@U_HTTP_UPLOAD_FILE_ARGUMENT@CHTTPUploadFile@@@std@@@2@XZ 10038d90 f i HTTPUploadFile.obj
 0002:00019e20       ?end@?$vector@U_HTTP_UPLOAD_FILE_ARGUMENT@CHTTPUploadFile@@V?$allocator@U_HTTP_UPLOAD_FILE_ARGUMENT@CHTTPUploadFile@@@std@@@std@@QAE?AV?$_Vector_iterator@U_HTTP_UPLOAD_FILE_ARGUMENT@CHTTPUploadFile@@V?$allocator@U_HTTP_UPLOAD_FILE_ARGUMENT@CHTTPUploadFile@@@std@@@2@XZ 10038e20 f i HTTPUploadFile.obj
 0002:00019eb0       ?size@?$vector@U_HTTP_UPLOAD_FILE_ARGUMENT@CHTTPUploadFile@@V?$allocator@U_HTTP_UPLOAD_FILE_ARGUMENT@CHTTPUploadFile@@@std@@@std@@QBEIXZ 10038eb0 f i HTTPUploadFile.obj
 0002:00019f00       ?push_back@?$vector@U_HTTP_UPLOAD_FILE_ARGUMENT@CHTTPUploadFile@@V?$allocator@U_HTTP_UPLOAD_FILE_ARGUMENT@CHTTPUploadFile@@@std@@@std@@QAEXABU_HTTP_UPLOAD_FILE_ARGUMENT@CHTTPUploadFile@@@Z 10038f00 f i HTTPUploadFile.obj
 0002:0001a070       ?clear@?$vector@U_HTTP_UPLOAD_FILE_ARGUMENT@CHTTPUploadFile@@V?$allocator@U_HTTP_UPLOAD_FILE_ARGUMENT@CHTTPUploadFile@@@std@@@std@@QAEXXZ 10039070 f i HTTPUploadFile.obj
 0002:0001a200       ??0?$vector@U_HTTP_POST_DATA@CHTTPUploadFile@@V?$allocator@U_HTTP_POST_DATA@CHTTPUploadFile@@@std@@@std@@QAE@XZ 10039200 f i HTTPUploadFile.obj
 0002:0001a2c0       ??1?$vector@U_HTTP_POST_DATA@CHTTPUploadFile@@V?$allocator@U_HTTP_POST_DATA@CHTTPUploadFile@@@std@@@std@@QAE@XZ 100392c0 f i HTTPUploadFile.obj
 0002:0001a360       ?begin@?$vector@U_HTTP_POST_DATA@CHTTPUploadFile@@V?$allocator@U_HTTP_POST_DATA@CHTTPUploadFile@@@std@@@std@@QAE?AV?$_Vector_iterator@U_HTTP_POST_DATA@CHTTPUploadFile@@V?$allocator@U_HTTP_POST_DATA@CHTTPUploadFile@@@std@@@2@XZ 10039360 f i HTTPUploadFile.obj
 0002:0001a3f0       ?end@?$vector@U_HTTP_POST_DATA@CHTTPUploadFile@@V?$allocator@U_HTTP_POST_DATA@CHTTPUploadFile@@@std@@@std@@QAE?AV?$_Vector_iterator@U_HTTP_POST_DATA@CHTTPUploadFile@@V?$allocator@U_HTTP_POST_DATA@CHTTPUploadFile@@@std@@@2@XZ 100393f0 f i HTTPUploadFile.obj
 0002:0001a480       ?size@?$vector@U_HTTP_POST_DATA@CHTTPUploadFile@@V?$allocator@U_HTTP_POST_DATA@CHTTPUploadFile@@@std@@@std@@QBEIXZ 10039480 f i HTTPUploadFile.obj
 0002:0001a4d0       ?push_back@?$vector@U_HTTP_POST_DATA@CHTTPUploadFile@@V?$allocator@U_HTTP_POST_DATA@CHTTPUploadFile@@@std@@@std@@QAEXABU_HTTP_POST_DATA@CHTTPUploadFile@@@Z 100394d0 f i HTTPUploadFile.obj
 0002:0001a640       ?clear@?$vector@U_HTTP_POST_DATA@CHTTPUploadFile@@V?$allocator@U_HTTP_POST_DATA@CHTTPUploadFile@@@std@@@std@@QAEXXZ 10039640 f i HTTPUploadFile.obj
 0002:0001a7d0       ??0?$_Vector_iterator@U_HTTP_POST_DATA@CHTTPUploadFile@@V?$allocator@U_HTTP_POST_DATA@CHTTPUploadFile@@@std@@@std@@QAE@XZ 100397d0 f i HTTPUploadFile.obj
 0002:0001a830       ??C?$_Vector_iterator@U_HTTP_POST_DATA@CHTTPUploadFile@@V?$allocator@U_HTTP_POST_DATA@CHTTPUploadFile@@@std@@@std@@QBEPAU_HTTP_POST_DATA@CHTTPUploadFile@@XZ 10039830 f i HTTPUploadFile.obj
 0002:0001a880       ??E?$_Vector_iterator@U_HTTP_POST_DATA@CHTTPUploadFile@@V?$allocator@U_HTTP_POST_DATA@CHTTPUploadFile@@@std@@@std@@QAE?AV01@H@Z 10039880 f i HTTPUploadFile.obj
 0002:0001a9a0       ??9?$_Vector_const_iterator@U_HTTP_POST_DATA@CHTTPUploadFile@@V?$allocator@U_HTTP_POST_DATA@CHTTPUploadFile@@@std@@@std@@QBE_NABV01@@Z 100399a0 f i HTTPUploadFile.obj
 0002:0001aa10       ??0?$_Vector_iterator@U_HTTP_UPLOAD_FILE_ARGUMENT@CHTTPUploadFile@@V?$allocator@U_HTTP_UPLOAD_FILE_ARGUMENT@CHTTPUploadFile@@@std@@@std@@QAE@XZ 10039a10 f i HTTPUploadFile.obj
 0002:0001aa70       ??C?$_Vector_iterator@U_HTTP_UPLOAD_FILE_ARGUMENT@CHTTPUploadFile@@V?$allocator@U_HTTP_UPLOAD_FILE_ARGUMENT@CHTTPUploadFile@@@std@@@std@@QBEPAU_HTTP_UPLOAD_FILE_ARGUMENT@CHTTPUploadFile@@XZ 10039a70 f i HTTPUploadFile.obj
 0002:0001aac0       ??E?$_Vector_iterator@U_HTTP_UPLOAD_FILE_ARGUMENT@CHTTPUploadFile@@V?$allocator@U_HTTP_UPLOAD_FILE_ARGUMENT@CHTTPUploadFile@@@std@@@std@@QAEAAV01@XZ 10039ac0 f i HTTPUploadFile.obj
 0002:0001ab20       ??G?$_Vector_iterator@U_HTTP_UPLOAD_FILE_ARGUMENT@CHTTPUploadFile@@V?$allocator@U_HTTP_UPLOAD_FILE_ARGUMENT@CHTTPUploadFile@@@std@@@std@@QBEHABV?$_Vector_const_iterator@U_HTTP_UPLOAD_FILE_ARGUMENT@CHTTPUploadFile@@V?$allocator@U_HTTP_UPLOAD_FILE_ARGUMENT@CHTTPUploadFile@@@std@@@1@@Z 10039b20 f i HTTPUploadFile.obj
 0002:0001ab80       ??M?$_Vector_const_iterator@U_HTTP_UPLOAD_FILE_ARGUMENT@CHTTPUploadFile@@V?$allocator@U_HTTP_UPLOAD_FILE_ARGUMENT@CHTTPUploadFile@@@std@@@std@@QBE_NABV01@@Z 10039b80 f i HTTPUploadFile.obj
 0002:0001abf0       ??1?$_Vector_val@U_HTTP_UPLOAD_FILE_ARGUMENT@CHTTPUploadFile@@V?$allocator@U_HTTP_UPLOAD_FILE_ARGUMENT@CHTTPUploadFile@@@std@@@std@@QAE@XZ 10039bf0 f i HTTPUploadFile.obj
 0002:0001ac40       ??0?$_Vector_const_iterator@U_HTTP_UPLOAD_FILE_ARGUMENT@CHTTPUploadFile@@V?$allocator@U_HTTP_UPLOAD_FILE_ARGUMENT@CHTTPUploadFile@@@std@@@std@@QAE@ABV01@@Z 10039c40 f i HTTPUploadFile.obj
 0002:0001acb0       ??1?$_Vector_val@U_HTTP_POST_DATA@CHTTPUploadFile@@V?$allocator@U_HTTP_POST_DATA@CHTTPUploadFile@@@std@@@std@@QAE@XZ 10039cb0 f i HTTPUploadFile.obj
 0002:0001ad00       ??0?$_Vector_const_iterator@U_HTTP_POST_DATA@CHTTPUploadFile@@V?$allocator@U_HTTP_POST_DATA@CHTTPUploadFile@@@std@@@std@@QAE@ABV01@@Z 10039d00 f i HTTPUploadFile.obj
 0002:0001ad70       ??0?$_Vector_iterator@U_HTTP_POST_DATA@CHTTPUploadFile@@V?$allocator@U_HTTP_POST_DATA@CHTTPUploadFile@@@std@@@std@@QAE@ABV01@@Z 10039d70 f i HTTPUploadFile.obj
 0002:0001add0       ??0?$_Ranit@U_HTTP_UPLOAD_FILE_ARGUMENT@CHTTPUploadFile@@HPBU12@ABU12@@std@@QAE@ABU01@@Z 10039dd0 f i HTTPUploadFile.obj
 0002:0001ae30       ??0?$_Ranit@U_HTTP_POST_DATA@CHTTPUploadFile@@HPBU12@ABU12@@std@@QAE@ABU01@@Z 10039e30 f i HTTPUploadFile.obj
 0002:0001ae90       ??0?$_Iterator_with_base@Urandom_access_iterator_tag@std@@U_HTTP_UPLOAD_FILE_ARGUMENT@CHTTPUploadFile@@HPBU34@ABU34@V_Iterator_base@2@@std@@QAE@ABU01@@Z 10039e90 f i HTTPUploadFile.obj
 0002:0001aef0       ??0?$_Iterator_with_base@Urandom_access_iterator_tag@std@@U_HTTP_POST_DATA@CHTTPUploadFile@@HPBU34@ABU34@V_Iterator_base@2@@std@@QAE@ABU01@@Z 10039ef0 f i HTTPUploadFile.obj
 0002:0001af50       ?capacity@?$vector@U_HTTP_UPLOAD_FILE_ARGUMENT@CHTTPUploadFile@@V?$allocator@U_HTTP_UPLOAD_FILE_ARGUMENT@CHTTPUploadFile@@@std@@@std@@QBEIXZ 10039f50 f i HTTPUploadFile.obj
 0002:0001afd0       ?insert@?$vector@U_HTTP_UPLOAD_FILE_ARGUMENT@CHTTPUploadFile@@V?$allocator@U_HTTP_UPLOAD_FILE_ARGUMENT@CHTTPUploadFile@@@std@@@std@@QAE?AV?$_Vector_iterator@U_HTTP_UPLOAD_FILE_ARGUMENT@CHTTPUploadFile@@V?$allocator@U_HTTP_UPLOAD_FILE_ARGUMENT@CHTTPUploadFile@@@std@@@2@V?$_Vector_const_iterator@U_HTTP_UPLOAD_FILE_ARGUMENT@CHTTPUploadFile@@V?$allocator@U_HTTP_UPLOAD_FILE_ARGUMENT@CHTTPUploadFile@@@std@@@2@ABU_HTTP_UPLOAD_FILE_ARGUMENT@CHTTPUploadFile@@@Z 10039fd0 f i HTTPUploadFile.obj
 0002:0001b1d0       ?erase@?$vector@U_HTTP_UPLOAD_FILE_ARGUMENT@CHTTPUploadFile@@V?$allocator@U_HTTP_UPLOAD_FILE_ARGUMENT@CHTTPUploadFile@@@std@@@std@@QAE?AV?$_Vector_iterator@U_HTTP_UPLOAD_FILE_ARGUMENT@CHTTPUploadFile@@V?$allocator@U_HTTP_UPLOAD_FILE_ARGUMENT@CHTTPUploadFile@@@std@@@2@V?$_Vector_const_iterator@U_HTTP_UPLOAD_FILE_ARGUMENT@CHTTPUploadFile@@V?$allocator@U_HTTP_UPLOAD_FILE_ARGUMENT@CHTTPUploadFile@@@std@@@2@0@Z 1003a1d0 f i HTTPUploadFile.obj
 0002:0001b470       ?_Buy@?$vector@U_HTTP_UPLOAD_FILE_ARGUMENT@CHTTPUploadFile@@V?$allocator@U_HTTP_UPLOAD_FILE_ARGUMENT@CHTTPUploadFile@@@std@@@std@@IAE_NI@Z 1003a470 f i HTTPUploadFile.obj
 0002:0001b550       ?_Tidy@?$vector@U_HTTP_UPLOAD_FILE_ARGUMENT@CHTTPUploadFile@@V?$allocator@U_HTTP_UPLOAD_FILE_ARGUMENT@CHTTPUploadFile@@@std@@@std@@IAEXXZ 1003a550 f i HTTPUploadFile.obj
 0002:0001b630       ?_Ufill@?$vector@U_HTTP_UPLOAD_FILE_ARGUMENT@CHTTPUploadFile@@V?$allocator@U_HTTP_UPLOAD_FILE_ARGUMENT@CHTTPUploadFile@@@std@@@std@@IAEPAU_HTTP_UPLOAD_FILE_ARGUMENT@CHTTPUploadFile@@PAU34@IABU34@@Z 1003a630 f i HTTPUploadFile.obj
 0002:0001b6b0       ?_Orphan_range@?$vector@U_HTTP_UPLOAD_FILE_ARGUMENT@CHTTPUploadFile@@V?$allocator@U_HTTP_UPLOAD_FILE_ARGUMENT@CHTTPUploadFile@@@std@@@std@@IBEXPAU_HTTP_UPLOAD_FILE_ARGUMENT@CHTTPUploadFile@@0@Z 1003a6b0 f i HTTPUploadFile.obj
 0002:0001b7c0       ??0?$_Vector_val@U_HTTP_UPLOAD_FILE_ARGUMENT@CHTTPUploadFile@@V?$allocator@U_HTTP_UPLOAD_FILE_ARGUMENT@CHTTPUploadFile@@@std@@@std@@IAE@V?$allocator@U_HTTP_UPLOAD_FILE_ARGUMENT@CHTTPUploadFile@@@1@@Z 1003a7c0 f i HTTPUploadFile.obj
 0002:0001b840       ??1?$_Container_base_aux_alloc_empty@V?$allocator@U_HTTP_UPLOAD_FILE_ARGUMENT@CHTTPUploadFile@@@std@@@std@@IAE@XZ 1003a840 f i HTTPUploadFile.obj
 0002:0001b8a0       ??0?$allocator@U_HTTP_UPLOAD_FILE_ARGUMENT@CHTTPUploadFile@@@std@@QAE@XZ 1003a8a0 f i HTTPUploadFile.obj
 0002:0001b8e0       ?capacity@?$vector@U_HTTP_POST_DATA@CHTTPUploadFile@@V?$allocator@U_HTTP_POST_DATA@CHTTPUploadFile@@@std@@@std@@QBEIXZ 1003a8e0 f i HTTPUploadFile.obj
 0002:0001b950       ?insert@?$vector@U_HTTP_POST_DATA@CHTTPUploadFile@@V?$allocator@U_HTTP_POST_DATA@CHTTPUploadFile@@@std@@@std@@QAE?AV?$_Vector_iterator@U_HTTP_POST_DATA@CHTTPUploadFile@@V?$allocator@U_HTTP_POST_DATA@CHTTPUploadFile@@@std@@@2@V?$_Vector_const_iterator@U_HTTP_POST_DATA@CHTTPUploadFile@@V?$allocator@U_HTTP_POST_DATA@CHTTPUploadFile@@@std@@@2@ABU_HTTP_POST_DATA@CHTTPUploadFile@@@Z 1003a950 f i HTTPUploadFile.obj
 0002:0001bb50       ?erase@?$vector@U_HTTP_POST_DATA@CHTTPUploadFile@@V?$allocator@U_HTTP_POST_DATA@CHTTPUploadFile@@@std@@@std@@QAE?AV?$_Vector_iterator@U_HTTP_POST_DATA@CHTTPUploadFile@@V?$allocator@U_HTTP_POST_DATA@CHTTPUploadFile@@@std@@@2@V?$_Vector_const_iterator@U_HTTP_POST_DATA@CHTTPUploadFile@@V?$allocator@U_HTTP_POST_DATA@CHTTPUploadFile@@@std@@@2@0@Z 1003ab50 f i HTTPUploadFile.obj
 0002:0001bdf0       ?_Buy@?$vector@U_HTTP_POST_DATA@CHTTPUploadFile@@V?$allocator@U_HTTP_POST_DATA@CHTTPUploadFile@@@std@@@std@@IAE_NI@Z 1003adf0 f i HTTPUploadFile.obj
 0002:0001bed0       ?_Tidy@?$vector@U_HTTP_POST_DATA@CHTTPUploadFile@@V?$allocator@U_HTTP_POST_DATA@CHTTPUploadFile@@@std@@@std@@IAEXXZ 1003aed0 f i HTTPUploadFile.obj
 0002:0001bfb0       ?_Ufill@?$vector@U_HTTP_POST_DATA@CHTTPUploadFile@@V?$allocator@U_HTTP_POST_DATA@CHTTPUploadFile@@@std@@@std@@IAEPAU_HTTP_POST_DATA@CHTTPUploadFile@@PAU34@IABU34@@Z 1003afb0 f i HTTPUploadFile.obj
 0002:0001c030       ?_Orphan_range@?$vector@U_HTTP_POST_DATA@CHTTPUploadFile@@V?$allocator@U_HTTP_POST_DATA@CHTTPUploadFile@@@std@@@std@@IBEXPAU_HTTP_POST_DATA@CHTTPUploadFile@@0@Z 1003b030 f i HTTPUploadFile.obj
 0002:0001c140       ??0?$_Vector_val@U_HTTP_POST_DATA@CHTTPUploadFile@@V?$allocator@U_HTTP_POST_DATA@CHTTPUploadFile@@@std@@@std@@IAE@V?$allocator@U_HTTP_POST_DATA@CHTTPUploadFile@@@1@@Z 1003b140 f i HTTPUploadFile.obj
 0002:0001c1c0       ??1?$_Container_base_aux_alloc_empty@V?$allocator@U_HTTP_POST_DATA@CHTTPUploadFile@@@std@@@std@@IAE@XZ 1003b1c0 f i HTTPUploadFile.obj
 0002:0001c220       ??0?$allocator@U_HTTP_POST_DATA@CHTTPUploadFile@@@std@@QAE@XZ 1003b220 f i HTTPUploadFile.obj
 0002:0001c260       ??0?$_Vector_iterator@U_HTTP_POST_DATA@CHTTPUploadFile@@V?$allocator@U_HTTP_POST_DATA@CHTTPUploadFile@@@std@@@std@@QAE@PAU_HTTP_POST_DATA@CHTTPUploadFile@@PBV_Container_base_secure@1@@Z 1003b260 f i HTTPUploadFile.obj
 0002:0001c2c0       ??D?$_Vector_iterator@U_HTTP_POST_DATA@CHTTPUploadFile@@V?$allocator@U_HTTP_POST_DATA@CHTTPUploadFile@@@std@@@std@@QBEAAU_HTTP_POST_DATA@CHTTPUploadFile@@XZ 1003b2c0 f i HTTPUploadFile.obj
 0002:0001c310       ??E?$_Vector_iterator@U_HTTP_POST_DATA@CHTTPUploadFile@@V?$allocator@U_HTTP_POST_DATA@CHTTPUploadFile@@@std@@@std@@QAEAAV01@XZ 1003b310 f i HTTPUploadFile.obj
 0002:0001c370       ??0?$_Vector_const_iterator@U_HTTP_POST_DATA@CHTTPUploadFile@@V?$allocator@U_HTTP_POST_DATA@CHTTPUploadFile@@@std@@@std@@QAE@XZ 1003b370 f i HTTPUploadFile.obj
 0002:0001c3d0       ??8?$_Vector_const_iterator@U_HTTP_POST_DATA@CHTTPUploadFile@@V?$allocator@U_HTTP_POST_DATA@CHTTPUploadFile@@@std@@@std@@QBE_NABV01@@Z 1003b3d0 f i HTTPUploadFile.obj
 0002:0001c440       ??0?$_Vector_iterator@U_HTTP_UPLOAD_FILE_ARGUMENT@CHTTPUploadFile@@V?$allocator@U_HTTP_UPLOAD_FILE_ARGUMENT@CHTTPUploadFile@@@std@@@std@@QAE@PAU_HTTP_UPLOAD_FILE_ARGUMENT@CHTTPUploadFile@@PBV_Container_base_secure@1@@Z 1003b440 f i HTTPUploadFile.obj
 0002:0001c4a0       ??D?$_Vector_iterator@U_HTTP_UPLOAD_FILE_ARGUMENT@CHTTPUploadFile@@V?$allocator@U_HTTP_UPLOAD_FILE_ARGUMENT@CHTTPUploadFile@@@std@@@std@@QBEAAU_HTTP_UPLOAD_FILE_ARGUMENT@CHTTPUploadFile@@XZ 1003b4a0 f i HTTPUploadFile.obj
 0002:0001c4f0       ??0?$_Vector_const_iterator@U_HTTP_UPLOAD_FILE_ARGUMENT@CHTTPUploadFile@@V?$allocator@U_HTTP_UPLOAD_FILE_ARGUMENT@CHTTPUploadFile@@@std@@@std@@QAE@XZ 1003b4f0 f i HTTPUploadFile.obj
 0002:0001c550       ??E?$_Vector_const_iterator@U_HTTP_UPLOAD_FILE_ARGUMENT@CHTTPUploadFile@@V?$allocator@U_HTTP_UPLOAD_FILE_ARGUMENT@CHTTPUploadFile@@@std@@@std@@QAEAAV01@XZ 1003b550 f i HTTPUploadFile.obj
 0002:0001c700       ?_Getmycont@_Iterator_base@std@@QBEPBV_Container_base_secure@2@XZ 1003b700 f i HTTPUploadFile.obj
 0002:0001c740       ?_Has_container@_Iterator_base@std@@QBE_NXZ 1003b740 f i HTTPUploadFile.obj
 0002:0001c790       ??G?$_Vector_const_iterator@U_HTTP_UPLOAD_FILE_ARGUMENT@CHTTPUploadFile@@V?$allocator@U_HTTP_UPLOAD_FILE_ARGUMENT@CHTTPUploadFile@@@std@@@std@@QBEHABV01@@Z 1003b790 f i HTTPUploadFile.obj
 0002:0001c800       ?_Compat@?$_Vector_const_iterator@U_HTTP_UPLOAD_FILE_ARGUMENT@CHTTPUploadFile@@V?$allocator@U_HTTP_UPLOAD_FILE_ARGUMENT@CHTTPUploadFile@@@std@@@std@@QBEXABV12@@Z 1003b800 f i HTTPUploadFile.obj
 0002:0001c900       ??0?$_Ranit@U_HTTP_POST_DATA@CHTTPUploadFile@@HPBU12@ABU12@@std@@QAE@XZ 1003b900 f i HTTPUploadFile.obj
 0002:0001c960       ??0?$_Ranit@U_HTTP_UPLOAD_FILE_ARGUMENT@CHTTPUploadFile@@HPBU12@ABU12@@std@@QAE@XZ 1003b960 f i HTTPUploadFile.obj
 0002:0001c9c0       ??0?$_Iterator_with_base@Urandom_access_iterator_tag@std@@U_HTTP_POST_DATA@CHTTPUploadFile@@HPBU34@ABU34@V_Iterator_base@2@@std@@QAE@XZ 1003b9c0 f i HTTPUploadFile.obj
 0002:0001ca20       ??0?$_Iterator_with_base@Urandom_access_iterator_tag@std@@U_HTTP_UPLOAD_FILE_ARGUMENT@CHTTPUploadFile@@HPBU34@ABU34@V_Iterator_base@2@@std@@QAE@XZ 1003ba20 f i HTTPUploadFile.obj
 0002:0001ca80       ?_Make_iter@?$vector@U_HTTP_UPLOAD_FILE_ARGUMENT@CHTTPUploadFile@@V?$allocator@U_HTTP_UPLOAD_FILE_ARGUMENT@CHTTPUploadFile@@@std@@@std@@QBE?AV?$_Vector_iterator@U_HTTP_UPLOAD_FILE_ARGUMENT@CHTTPUploadFile@@V?$allocator@U_HTTP_UPLOAD_FILE_ARGUMENT@CHTTPUploadFile@@@std@@@2@V?$_Vector_const_iterator@U_HTTP_UPLOAD_FILE_ARGUMENT@CHTTPUploadFile@@V?$allocator@U_HTTP_UPLOAD_FILE_ARGUMENT@CHTTPUploadFile@@@std@@@2@@Z 1003ba80 f i HTTPUploadFile.obj
 0002:0001cb50       ?max_size@?$vector@U_HTTP_UPLOAD_FILE_ARGUMENT@CHTTPUploadFile@@V?$allocator@U_HTTP_UPLOAD_FILE_ARGUMENT@CHTTPUploadFile@@@std@@@std@@QBEIXZ 1003bb50 f i HTTPUploadFile.obj
 0002:0001cbb0       ?_Destroy@?$vector@U_HTTP_UPLOAD_FILE_ARGUMENT@CHTTPUploadFile@@V?$allocator@U_HTTP_UPLOAD_FILE_ARGUMENT@CHTTPUploadFile@@@std@@@std@@IAEXPAU_HTTP_UPLOAD_FILE_ARGUMENT@CHTTPUploadFile@@0@Z 1003bbb0 f i HTTPUploadFile.obj
 0002:0001cc20       ?_Insert_n@?$vector@U_HTTP_UPLOAD_FILE_ARGUMENT@CHTTPUploadFile@@V?$allocator@U_HTTP_UPLOAD_FILE_ARGUMENT@CHTTPUploadFile@@@std@@@std@@IAEXV?$_Vector_const_iterator@U_HTTP_UPLOAD_FILE_ARGUMENT@CHTTPUploadFile@@V?$allocator@U_HTTP_UPLOAD_FILE_ARGUMENT@CHTTPUploadFile@@@std@@@2@IABU_HTTP_UPLOAD_FILE_ARGUMENT@CHTTPUploadFile@@@Z 1003bc20 f i HTTPUploadFile.obj
 0002:0001d280       ?_Xlen@?$vector@U_HTTP_UPLOAD_FILE_ARGUMENT@CHTTPUploadFile@@V?$allocator@U_HTTP_UPLOAD_FILE_ARGUMENT@CHTTPUploadFile@@@std@@@std@@KAXXZ 1003c280 f i HTTPUploadFile.obj
 0002:0001d370       ??0?$_Container_base_aux_alloc_empty@V?$allocator@U_HTTP_UPLOAD_FILE_ARGUMENT@CHTTPUploadFile@@@std@@@std@@IAE@V?$allocator@U_HTTP_UPLOAD_FILE_ARGUMENT@CHTTPUploadFile@@@1@@Z 1003c370 f i HTTPUploadFile.obj
 0002:0001d3e0       ??0?$allocator@U_HTTP_UPLOAD_FILE_ARGUMENT@CHTTPUploadFile@@@std@@QAE@ABV01@@Z 1003c3e0 f i HTTPUploadFile.obj
 0002:0001d420       ?deallocate@?$allocator@U_HTTP_UPLOAD_FILE_ARGUMENT@CHTTPUploadFile@@@std@@QAEXPAU_HTTP_UPLOAD_FILE_ARGUMENT@CHTTPUploadFile@@I@Z 1003c420 f i HTTPUploadFile.obj
 0002:0001d480       ?allocate@?$allocator@U_HTTP_UPLOAD_FILE_ARGUMENT@CHTTPUploadFile@@@std@@QAEPAU_HTTP_UPLOAD_FILE_ARGUMENT@CHTTPUploadFile@@I@Z 1003c480 f i HTTPUploadFile.obj
 0002:0001d4e0       ?_Make_iter@?$vector@U_HTTP_POST_DATA@CHTTPUploadFile@@V?$allocator@U_HTTP_POST_DATA@CHTTPUploadFile@@@std@@@std@@QBE?AV?$_Vector_iterator@U_HTTP_POST_DATA@CHTTPUploadFile@@V?$allocator@U_HTTP_POST_DATA@CHTTPUploadFile@@@std@@@2@V?$_Vector_const_iterator@U_HTTP_POST_DATA@CHTTPUploadFile@@V?$allocator@U_HTTP_POST_DATA@CHTTPUploadFile@@@std@@@2@@Z 1003c4e0 f i HTTPUploadFile.obj
 0002:0001d5b0       ?max_size@?$vector@U_HTTP_POST_DATA@CHTTPUploadFile@@V?$allocator@U_HTTP_POST_DATA@CHTTPUploadFile@@@std@@@std@@QBEIXZ 1003c5b0 f i HTTPUploadFile.obj
 0002:0001d610       ?_Destroy@?$vector@U_HTTP_POST_DATA@CHTTPUploadFile@@V?$allocator@U_HTTP_POST_DATA@CHTTPUploadFile@@@std@@@std@@IAEXPAU_HTTP_POST_DATA@CHTTPUploadFile@@0@Z 1003c610 f i HTTPUploadFile.obj
 0002:0001d680       ?_Insert_n@?$vector@U_HTTP_POST_DATA@CHTTPUploadFile@@V?$allocator@U_HTTP_POST_DATA@CHTTPUploadFile@@@std@@@std@@IAEXV?$_Vector_const_iterator@U_HTTP_POST_DATA@CHTTPUploadFile@@V?$allocator@U_HTTP_POST_DATA@CHTTPUploadFile@@@std@@@2@IABU_HTTP_POST_DATA@CHTTPUploadFile@@@Z 1003c680 f i HTTPUploadFile.obj
 0002:0001dc50       ?_Xlen@?$vector@U_HTTP_POST_DATA@CHTTPUploadFile@@V?$allocator@U_HTTP_POST_DATA@CHTTPUploadFile@@@std@@@std@@KAXXZ 1003cc50 f i HTTPUploadFile.obj
 0002:0001dd40       ??0?$_Container_base_aux_alloc_empty@V?$allocator@U_HTTP_POST_DATA@CHTTPUploadFile@@@std@@@std@@IAE@V?$allocator@U_HTTP_POST_DATA@CHTTPUploadFile@@@1@@Z 1003cd40 f i HTTPUploadFile.obj
 0002:0001ddb0       ??0?$allocator@U_HTTP_POST_DATA@CHTTPUploadFile@@@std@@QAE@ABV01@@Z 1003cdb0 f i HTTPUploadFile.obj
 0002:0001ddf0       ?deallocate@?$allocator@U_HTTP_POST_DATA@CHTTPUploadFile@@@std@@QAEXPAU_HTTP_POST_DATA@CHTTPUploadFile@@I@Z 1003cdf0 f i HTTPUploadFile.obj
 0002:0001de50       ?allocate@?$allocator@U_HTTP_POST_DATA@CHTTPUploadFile@@@std@@QAEPAU_HTTP_POST_DATA@CHTTPUploadFile@@I@Z 1003ce50 f i HTTPUploadFile.obj
 0002:0001deb0       ??H?$_Vector_iterator@U_HTTP_POST_DATA@CHTTPUploadFile@@V?$allocator@U_HTTP_POST_DATA@CHTTPUploadFile@@@std@@@std@@QBE?AV01@H@Z 1003ceb0 f i HTTPUploadFile.obj
 0002:0001dfd0       ??0?$_Vector_const_iterator@U_HTTP_POST_DATA@CHTTPUploadFile@@V?$allocator@U_HTTP_POST_DATA@CHTTPUploadFile@@@std@@@std@@QAE@PAU_HTTP_POST_DATA@CHTTPUploadFile@@PBV_Container_base_secure@1@@Z 1003cfd0 f i HTTPUploadFile.obj
 0002:0001e120       ??D?$_Vector_const_iterator@U_HTTP_POST_DATA@CHTTPUploadFile@@V?$allocator@U_HTTP_POST_DATA@CHTTPUploadFile@@@std@@@std@@QBEABU_HTTP_POST_DATA@CHTTPUploadFile@@XZ 1003d120 f i HTTPUploadFile.obj
 0002:0001e230       ??E?$_Vector_const_iterator@U_HTTP_POST_DATA@CHTTPUploadFile@@V?$allocator@U_HTTP_POST_DATA@CHTTPUploadFile@@@std@@@std@@QAEAAV01@XZ 1003d230 f i HTTPUploadFile.obj
 0002:0001e3d0       ??G?$_Vector_const_iterator@U_HTTP_POST_DATA@CHTTPUploadFile@@V?$allocator@U_HTTP_POST_DATA@CHTTPUploadFile@@@std@@@std@@QBEHABV01@@Z 1003d3d0 f i HTTPUploadFile.obj
 0002:0001e440       ??M?$_Vector_const_iterator@U_HTTP_POST_DATA@CHTTPUploadFile@@V?$allocator@U_HTTP_POST_DATA@CHTTPUploadFile@@@std@@@std@@QBE_NABV01@@Z 1003d440 f i HTTPUploadFile.obj
 0002:0001e4b0       ?_Compat@?$_Vector_const_iterator@U_HTTP_POST_DATA@CHTTPUploadFile@@V?$allocator@U_HTTP_POST_DATA@CHTTPUploadFile@@@std@@@std@@QBEXABV12@@Z 1003d4b0 f i HTTPUploadFile.obj
 0002:0001e5b0       ??H?$_Vector_iterator@U_HTTP_UPLOAD_FILE_ARGUMENT@CHTTPUploadFile@@V?$allocator@U_HTTP_UPLOAD_FILE_ARGUMENT@CHTTPUploadFile@@@std@@@std@@QBE?AV01@H@Z 1003d5b0 f i HTTPUploadFile.obj
 0002:0001e6d0       ??0?$_Vector_const_iterator@U_HTTP_UPLOAD_FILE_ARGUMENT@CHTTPUploadFile@@V?$allocator@U_HTTP_UPLOAD_FILE_ARGUMENT@CHTTPUploadFile@@@std@@@std@@QAE@PAU_HTTP_UPLOAD_FILE_ARGUMENT@CHTTPUploadFile@@PBV_Container_base_secure@1@@Z 1003d6d0 f i HTTPUploadFile.obj
 0002:0001e820       ??D?$_Vector_const_iterator@U_HTTP_UPLOAD_FILE_ARGUMENT@CHTTPUploadFile@@V?$allocator@U_HTTP_UPLOAD_FILE_ARGUMENT@CHTTPUploadFile@@@std@@@std@@QBEABU_HTTP_UPLOAD_FILE_ARGUMENT@CHTTPUploadFile@@XZ 1003d820 f i HTTPUploadFile.obj
 0002:0001e930       ??9?$_Vector_const_iterator@U_HTTP_UPLOAD_FILE_ARGUMENT@CHTTPUploadFile@@V?$allocator@U_HTTP_UPLOAD_FILE_ARGUMENT@CHTTPUploadFile@@@std@@@std@@QBE_NABV01@@Z 1003d930 f i HTTPUploadFile.obj
 0002:0001e9a0       ??0?$_Vector_iterator@U_HTTP_UPLOAD_FILE_ARGUMENT@CHTTPUploadFile@@V?$allocator@U_HTTP_UPLOAD_FILE_ARGUMENT@CHTTPUploadFile@@@std@@@std@@QAE@ABV01@@Z 1003d9a0 f i HTTPUploadFile.obj
 0002:0001ea00       ?max_size@?$allocator@U_HTTP_UPLOAD_FILE_ARGUMENT@CHTTPUploadFile@@@std@@QBEIXZ 1003da00 f i HTTPUploadFile.obj
 0002:0001ea70       ?max_size@?$allocator@U_HTTP_POST_DATA@CHTTPUploadFile@@@std@@QBEIXZ 1003da70 f i HTTPUploadFile.obj
 0002:0001eae0       ??Y?$_Vector_iterator@U_HTTP_POST_DATA@CHTTPUploadFile@@V?$allocator@U_HTTP_POST_DATA@CHTTPUploadFile@@@std@@@std@@QAEAAV01@H@Z 1003dae0 f i HTTPUploadFile.obj
 0002:0001eb40       ??Y?$_Vector_iterator@U_HTTP_UPLOAD_FILE_ARGUMENT@CHTTPUploadFile@@V?$allocator@U_HTTP_UPLOAD_FILE_ARGUMENT@CHTTPUploadFile@@@std@@@std@@QAEAAV01@H@Z 1003db40 f i HTTPUploadFile.obj
 0002:0001eba0       ??8?$_Vector_const_iterator@U_HTTP_UPLOAD_FILE_ARGUMENT@CHTTPUploadFile@@V?$allocator@U_HTTP_UPLOAD_FILE_ARGUMENT@CHTTPUploadFile@@@std@@@std@@QBE_NABV01@@Z 1003dba0 f i HTTPUploadFile.obj
 0002:0001ec10       ??Y?$_Vector_const_iterator@U_HTTP_POST_DATA@CHTTPUploadFile@@V?$allocator@U_HTTP_POST_DATA@CHTTPUploadFile@@@std@@@std@@QAEAAV01@H@Z 1003dc10 f i HTTPUploadFile.obj
 0002:0001edb0       ??Y?$_Vector_const_iterator@U_HTTP_UPLOAD_FILE_ARGUMENT@CHTTPUploadFile@@V?$allocator@U_HTTP_UPLOAD_FILE_ARGUMENT@CHTTPUploadFile@@@std@@@std@@QAEAAV01@H@Z 1003ddb0 f i HTTPUploadFile.obj
 0002:0001ef60       ??$unchecked_copy@PAU_HTTP_UPLOAD_FILE_ARGUMENT@CHTTPUploadFile@@PAU12@@stdext@@YAPAU_HTTP_UPLOAD_FILE_ARGUMENT@CHTTPUploadFile@@PAU12@00@Z 1003df60 f i HTTPUploadFile.obj
 0002:0001f030       ??$unchecked_uninitialized_fill_n@PAU_HTTP_UPLOAD_FILE_ARGUMENT@CHTTPUploadFile@@IU12@V?$allocator@U_HTTP_UPLOAD_FILE_ARGUMENT@CHTTPUploadFile@@@std@@@stdext@@YAXPAU_HTTP_UPLOAD_FILE_ARGUMENT@CHTTPUploadFile@@IABU12@AAV?$allocator@U_HTTP_UPLOAD_FILE_ARGUMENT@CHTTPUploadFile@@@std@@@Z 1003e030 f i HTTPUploadFile.obj
 0002:0001f0d0       ??$unchecked_copy@PAU_HTTP_POST_DATA@CHTTPUploadFile@@PAU12@@stdext@@YAPAU_HTTP_POST_DATA@CHTTPUploadFile@@PAU12@00@Z 1003e0d0 f i HTTPUploadFile.obj
 0002:0001f1a0       ??$unchecked_uninitialized_fill_n@PAU_HTTP_POST_DATA@CHTTPUploadFile@@IU12@V?$allocator@U_HTTP_POST_DATA@CHTTPUploadFile@@@std@@@stdext@@YAXPAU_HTTP_POST_DATA@CHTTPUploadFile@@IABU12@AAV?$allocator@U_HTTP_POST_DATA@CHTTPUploadFile@@@std@@@Z 1003e1a0 f i HTTPUploadFile.obj
 0002:0001f240       ??$_Destroy_range@V?$allocator@U_HTTP_UPLOAD_FILE_ARGUMENT@CHTTPUploadFile@@@std@@@std@@YAXPAU_HTTP_UPLOAD_FILE_ARGUMENT@CHTTPUploadFile@@0AAV?$allocator@U_HTTP_UPLOAD_FILE_ARGUMENT@CHTTPUploadFile@@@0@@Z 1003e240 f i HTTPUploadFile.obj
 0002:0001f2c0       ??$_Umove@PAU_HTTP_UPLOAD_FILE_ARGUMENT@CHTTPUploadFile@@@?$vector@U_HTTP_UPLOAD_FILE_ARGUMENT@CHTTPUploadFile@@V?$allocator@U_HTTP_UPLOAD_FILE_ARGUMENT@CHTTPUploadFile@@@std@@@std@@IAEPAU_HTTP_UPLOAD_FILE_ARGUMENT@CHTTPUploadFile@@PAU23@00@Z 1003e2c0 f i HTTPUploadFile.obj
 0002:0001f330       ??$fill@PAU_HTTP_UPLOAD_FILE_ARGUMENT@CHTTPUploadFile@@U12@@std@@YAXPAU_HTTP_UPLOAD_FILE_ARGUMENT@CHTTPUploadFile@@0ABU12@@Z 1003e330 f i HTTPUploadFile.obj
 0002:0001f3a0       ??$_Unchecked_move_backward@PAU_HTTP_UPLOAD_FILE_ARGUMENT@CHTTPUploadFile@@PAU12@@stdext@@YAPAU_HTTP_UPLOAD_FILE_ARGUMENT@CHTTPUploadFile@@PAU12@00@Z 1003e3a0 f i HTTPUploadFile.obj
 0002:0001f470       ??$_Allocate@U_HTTP_UPLOAD_FILE_ARGUMENT@CHTTPUploadFile@@@std@@YAPAU_HTTP_UPLOAD_FILE_ARGUMENT@CHTTPUploadFile@@IPAU12@@Z 1003e470 f i HTTPUploadFile.obj
 0002:0001f510       ??$_Destroy_range@V?$allocator@U_HTTP_POST_DATA@CHTTPUploadFile@@@std@@@std@@YAXPAU_HTTP_POST_DATA@CHTTPUploadFile@@0AAV?$allocator@U_HTTP_POST_DATA@CHTTPUploadFile@@@0@@Z 1003e510 f i HTTPUploadFile.obj
 0002:0001f590       ??$_Umove@PAU_HTTP_POST_DATA@CHTTPUploadFile@@@?$vector@U_HTTP_POST_DATA@CHTTPUploadFile@@V?$allocator@U_HTTP_POST_DATA@CHTTPUploadFile@@@std@@@std@@IAEPAU_HTTP_POST_DATA@CHTTPUploadFile@@PAU23@00@Z 1003e590 f i HTTPUploadFile.obj
 0002:0001f600       ??$fill@PAU_HTTP_POST_DATA@CHTTPUploadFile@@U12@@std@@YAXPAU_HTTP_POST_DATA@CHTTPUploadFile@@0ABU12@@Z 1003e600 f i HTTPUploadFile.obj
 0002:0001f670       ??$_Unchecked_move_backward@PAU_HTTP_POST_DATA@CHTTPUploadFile@@PAU12@@stdext@@YAPAU_HTTP_POST_DATA@CHTTPUploadFile@@PAU12@00@Z 1003e670 f i HTTPUploadFile.obj
 0002:0001f740       ??$_Allocate@U_HTTP_POST_DATA@CHTTPUploadFile@@@std@@YAPAU_HTTP_POST_DATA@CHTTPUploadFile@@IPAU12@@Z 1003e740 f i HTTPUploadFile.obj
 0002:0001f7e0       ??$_Checked_base@PAU_HTTP_UPLOAD_FILE_ARGUMENT@CHTTPUploadFile@@@std@@YAPAU_HTTP_UPLOAD_FILE_ARGUMENT@CHTTPUploadFile@@AAPAU12@@Z 1003e7e0 f i HTTPUploadFile.obj
 0002:0001f870       ??$_Iter_random@PAU_HTTP_UPLOAD_FILE_ARGUMENT@CHTTPUploadFile@@PAU12@@std@@YA?AUrandom_access_iterator_tag@0@ABQAU_HTTP_UPLOAD_FILE_ARGUMENT@CHTTPUploadFile@@0@Z 1003e870 f i HTTPUploadFile.obj
 0002:0001f8e0       ??$_Ptr_cat@PAU_HTTP_UPLOAD_FILE_ARGUMENT@CHTTPUploadFile@@PAU12@@std@@YA?AU_Nonscalar_ptr_iterator_tag@0@AAPAU_HTTP_UPLOAD_FILE_ARGUMENT@CHTTPUploadFile@@0@Z 1003e8e0 f i HTTPUploadFile.obj
 0002:0001f950       ??$_Copy_opt@PAU_HTTP_UPLOAD_FILE_ARGUMENT@CHTTPUploadFile@@PAU12@@std@@YAPAU_HTTP_UPLOAD_FILE_ARGUMENT@CHTTPUploadFile@@PAU12@00Urandom_access_iterator_tag@0@U_Nonscalar_ptr_iterator_tag@0@U_Range_checked_iterator_tag@0@@Z 1003e950 f i HTTPUploadFile.obj
 0002:0001fa10       ??$_Uninit_fill_n@PAU_HTTP_UPLOAD_FILE_ARGUMENT@CHTTPUploadFile@@IU12@V?$allocator@U_HTTP_UPLOAD_FILE_ARGUMENT@CHTTPUploadFile@@@std@@@std@@YAXPAU_HTTP_UPLOAD_FILE_ARGUMENT@CHTTPUploadFile@@IABU12@AAV?$allocator@U_HTTP_UPLOAD_FILE_ARGUMENT@CHTTPUploadFile@@@0@U_Nonscalar_ptr_iterator_tag@0@U_Range_checked_iterator_tag@0@@Z 1003ea10 f i HTTPUploadFile.obj
 0002:0001fb30       ??$_Checked_base@PAU_HTTP_POST_DATA@CHTTPUploadFile@@@std@@YAPAU_HTTP_POST_DATA@CHTTPUploadFile@@AAPAU12@@Z 1003eb30 f i HTTPUploadFile.obj
 0002:0001fbc0       ??$_Iter_random@PAU_HTTP_POST_DATA@CHTTPUploadFile@@PAU12@@std@@YA?AUrandom_access_iterator_tag@0@ABQAU_HTTP_POST_DATA@CHTTPUploadFile@@0@Z 1003ebc0 f i HTTPUploadFile.obj
 0002:0001fc30       ??$_Ptr_cat@PAU_HTTP_POST_DATA@CHTTPUploadFile@@PAU12@@std@@YA?AU_Nonscalar_ptr_iterator_tag@0@AAPAU_HTTP_POST_DATA@CHTTPUploadFile@@0@Z 1003ec30 f i HTTPUploadFile.obj
 0002:0001fca0       ??$_Copy_opt@PAU_HTTP_POST_DATA@CHTTPUploadFile@@PAU12@@std@@YAPAU_HTTP_POST_DATA@CHTTPUploadFile@@PAU12@00Urandom_access_iterator_tag@0@U_Nonscalar_ptr_iterator_tag@0@U_Range_checked_iterator_tag@0@@Z 1003eca0 f i HTTPUploadFile.obj
 0002:0001fd50       ??$_Uninit_fill_n@PAU_HTTP_POST_DATA@CHTTPUploadFile@@IU12@V?$allocator@U_HTTP_POST_DATA@CHTTPUploadFile@@@std@@@std@@YAXPAU_HTTP_POST_DATA@CHTTPUploadFile@@IABU12@AAV?$allocator@U_HTTP_POST_DATA@CHTTPUploadFile@@@0@U_Nonscalar_ptr_iterator_tag@0@U_Range_checked_iterator_tag@0@@Z 1003ed50 f i HTTPUploadFile.obj
 0002:0001fe60       ??$_Destroy_range@V?$allocator@U_HTTP_UPLOAD_FILE_ARGUMENT@CHTTPUploadFile@@@std@@@std@@YAXPAU_HTTP_UPLOAD_FILE_ARGUMENT@CHTTPUploadFile@@0AAV?$allocator@U_HTTP_UPLOAD_FILE_ARGUMENT@CHTTPUploadFile@@@0@U_Nonscalar_ptr_iterator_tag@0@@Z 1003ee60 f i HTTPUploadFile.obj
 0002:0001fed0       ??$_Unchecked_uninitialized_move@PAU_HTTP_UPLOAD_FILE_ARGUMENT@CHTTPUploadFile@@PAU12@V?$allocator@U_HTTP_UPLOAD_FILE_ARGUMENT@CHTTPUploadFile@@@std@@@stdext@@YAPAU_HTTP_UPLOAD_FILE_ARGUMENT@CHTTPUploadFile@@PAU12@00AAV?$allocator@U_HTTP_UPLOAD_FILE_ARGUMENT@CHTTPUploadFile@@@std@@@Z 1003eed0 f i HTTPUploadFile.obj
 0002:0001ff80       ??$_Fill@PAU_HTTP_UPLOAD_FILE_ARGUMENT@CHTTPUploadFile@@U12@@std@@YAXPAU_HTTP_UPLOAD_FILE_ARGUMENT@CHTTPUploadFile@@0ABU12@@Z 1003ef80 f i HTTPUploadFile.obj
 0002:00020010       ??$_Move_cat@PAU_HTTP_UPLOAD_FILE_ARGUMENT@CHTTPUploadFile@@@std@@YA?AU_Undefined_move_tag@0@ABQAU_HTTP_UPLOAD_FILE_ARGUMENT@CHTTPUploadFile@@@Z 1003f010 f i HTTPUploadFile.obj
 0002:00020080       ??$_Move_backward_opt@PAU_HTTP_UPLOAD_FILE_ARGUMENT@CHTTPUploadFile@@PAU12@Urandom_access_iterator_tag@std@@U_Undefined_move_tag@4@@std@@YAPAU_HTTP_UPLOAD_FILE_ARGUMENT@CHTTPUploadFile@@PAU12@00Urandom_access_iterator_tag@0@U_Undefined_move_tag@0@U_Range_checked_iterator_tag@0@@Z 1003f080 f i HTTPUploadFile.obj
 0002:00020120       ??$_Destroy_range@V?$allocator@U_HTTP_POST_DATA@CHTTPUploadFile@@@std@@@std@@YAXPAU_HTTP_POST_DATA@CHTTPUploadFile@@0AAV?$allocator@U_HTTP_POST_DATA@CHTTPUploadFile@@@0@U_Nonscalar_ptr_iterator_tag@0@@Z 1003f120 f i HTTPUploadFile.obj
 0002:00020190       ??$_Unchecked_uninitialized_move@PAU_HTTP_POST_DATA@CHTTPUploadFile@@PAU12@V?$allocator@U_HTTP_POST_DATA@CHTTPUploadFile@@@std@@@stdext@@YAPAU_HTTP_POST_DATA@CHTTPUploadFile@@PAU12@00AAV?$allocator@U_HTTP_POST_DATA@CHTTPUploadFile@@@std@@@Z 1003f190 f i HTTPUploadFile.obj
 0002:00020240       ??$_Fill@PAU_HTTP_POST_DATA@CHTTPUploadFile@@U12@@std@@YAXPAU_HTTP_POST_DATA@CHTTPUploadFile@@0ABU12@@Z 1003f240 f i HTTPUploadFile.obj
 0002:000202d0       ??$_Move_cat@PAU_HTTP_POST_DATA@CHTTPUploadFile@@@std@@YA?AU_Undefined_move_tag@0@ABQAU_HTTP_POST_DATA@CHTTPUploadFile@@@Z 1003f2d0 f i HTTPUploadFile.obj
 0002:00020340       ??$_Move_backward_opt@PAU_HTTP_POST_DATA@CHTTPUploadFile@@PAU12@Urandom_access_iterator_tag@std@@U_Undefined_move_tag@4@@std@@YAPAU_HTTP_POST_DATA@CHTTPUploadFile@@PAU12@00Urandom_access_iterator_tag@0@U_Undefined_move_tag@0@U_Range_checked_iterator_tag@0@@Z 1003f340 f i HTTPUploadFile.obj
 0002:000203e0       ?construct@?$allocator@U_HTTP_UPLOAD_FILE_ARGUMENT@CHTTPUploadFile@@@std@@QAEXPAU_HTTP_UPLOAD_FILE_ARGUMENT@CHTTPUploadFile@@ABU34@@Z 1003f3e0 f i HTTPUploadFile.obj
 0002:00020440       ?destroy@?$allocator@U_HTTP_UPLOAD_FILE_ARGUMENT@CHTTPUploadFile@@@std@@QAEXPAU_HTTP_UPLOAD_FILE_ARGUMENT@CHTTPUploadFile@@@Z 1003f440 f i HTTPUploadFile.obj
 0002:000204a0       ?construct@?$allocator@U_HTTP_POST_DATA@CHTTPUploadFile@@@std@@QAEXPAU_HTTP_POST_DATA@CHTTPUploadFile@@ABU34@@Z 1003f4a0 f i HTTPUploadFile.obj
 0002:00020500       ?destroy@?$allocator@U_HTTP_POST_DATA@CHTTPUploadFile@@@std@@QAEXPAU_HTTP_POST_DATA@CHTTPUploadFile@@@Z 1003f500 f i HTTPUploadFile.obj
 0002:00020560       ??$_Checked_base@PAU_HTTP_UPLOAD_FILE_ARGUMENT@CHTTPUploadFile@@@std@@YAPAU_HTTP_UPLOAD_FILE_ARGUMENT@CHTTPUploadFile@@AAPAU12@U_Unchanged_checked_iterator_base_type_tag@0@@Z 1003f560 f i HTTPUploadFile.obj
 0002:000205a0       ??$_Copy_opt@PAU_HTTP_UPLOAD_FILE_ARGUMENT@CHTTPUploadFile@@PAU12@Uforward_iterator_tag@std@@@std@@YAPAU_HTTP_UPLOAD_FILE_ARGUMENT@CHTTPUploadFile@@PAU12@00Uforward_iterator_tag@0@U_Nonscalar_ptr_iterator_tag@0@U_Range_checked_iterator_tag@0@@Z 1003f5a0 f i HTTPUploadFile.obj
 0002:00020640       ??$_Checked_base@PAU_HTTP_POST_DATA@CHTTPUploadFile@@@std@@YAPAU_HTTP_POST_DATA@CHTTPUploadFile@@AAPAU12@U_Unchanged_checked_iterator_base_type_tag@0@@Z 1003f640 f i HTTPUploadFile.obj
 0002:00020680       ??$_Copy_opt@PAU_HTTP_POST_DATA@CHTTPUploadFile@@PAU12@Uforward_iterator_tag@std@@@std@@YAPAU_HTTP_POST_DATA@CHTTPUploadFile@@PAU12@00Uforward_iterator_tag@0@U_Nonscalar_ptr_iterator_tag@0@U_Range_checked_iterator_tag@0@@Z 1003f680 f i HTTPUploadFile.obj
 0002:00020720       ??$_Uninit_move@PAU_HTTP_UPLOAD_FILE_ARGUMENT@CHTTPUploadFile@@PAU12@V?$allocator@U_HTTP_UPLOAD_FILE_ARGUMENT@CHTTPUploadFile@@@std@@U_Undefined_move_tag@4@@std@@YAPAU_HTTP_UPLOAD_FILE_ARGUMENT@CHTTPUploadFile@@PAU12@00AAV?$allocator@U_HTTP_UPLOAD_FILE_ARGUMENT@CHTTPUploadFile@@@0@U_Undefined_move_tag@0@U_Range_checked_iterator_tag@0@@Z 1003f720 f i HTTPUploadFile.obj
 0002:00020780       ??$_Debug_range@PAU_HTTP_UPLOAD_FILE_ARGUMENT@CHTTPUploadFile@@@std@@YAXPAU_HTTP_UPLOAD_FILE_ARGUMENT@CHTTPUploadFile@@0PB_WI@Z 1003f780 f i HTTPUploadFile.obj
 0002:00020800       ??$_Copy_backward_opt@PAU_HTTP_UPLOAD_FILE_ARGUMENT@CHTTPUploadFile@@PAU12@@std@@YAPAU_HTTP_UPLOAD_FILE_ARGUMENT@CHTTPUploadFile@@PAU12@00Urandom_access_iterator_tag@0@U_Nonscalar_ptr_iterator_tag@0@U_Range_checked_iterator_tag@0@@Z 1003f800 f i HTTPUploadFile.obj
 0002:000208c0       ??$_Uninit_move@PAU_HTTP_POST_DATA@CHTTPUploadFile@@PAU12@V?$allocator@U_HTTP_POST_DATA@CHTTPUploadFile@@@std@@U_Undefined_move_tag@4@@std@@YAPAU_HTTP_POST_DATA@CHTTPUploadFile@@PAU12@00AAV?$allocator@U_HTTP_POST_DATA@CHTTPUploadFile@@@0@U_Undefined_move_tag@0@U_Range_checked_iterator_tag@0@@Z 1003f8c0 f i HTTPUploadFile.obj
 0002:00020920       ??$_Debug_range@PAU_HTTP_POST_DATA@CHTTPUploadFile@@@std@@YAXPAU_HTTP_POST_DATA@CHTTPUploadFile@@0PB_WI@Z 1003f920 f i HTTPUploadFile.obj
 0002:000209a0       ??$_Copy_backward_opt@PAU_HTTP_POST_DATA@CHTTPUploadFile@@PAU12@@std@@YAPAU_HTTP_POST_DATA@CHTTPUploadFile@@PAU12@00Urandom_access_iterator_tag@0@U_Nonscalar_ptr_iterator_tag@0@U_Range_checked_iterator_tag@0@@Z 1003f9a0 f i HTTPUploadFile.obj
 0002:00020a60       ??$_Construct@U_HTTP_UPLOAD_FILE_ARGUMENT@CHTTPUploadFile@@U12@@std@@YAXPAU_HTTP_UPLOAD_FILE_ARGUMENT@CHTTPUploadFile@@ABU12@@Z 1003fa60 f i HTTPUploadFile.obj
 0002:00020b00       ??$_Destroy@U_HTTP_UPLOAD_FILE_ARGUMENT@CHTTPUploadFile@@@std@@YAXPAU_HTTP_UPLOAD_FILE_ARGUMENT@CHTTPUploadFile@@@Z 1003fb00 f i HTTPUploadFile.obj
 0002:00020b30       ??$_Construct@U_HTTP_POST_DATA@CHTTPUploadFile@@U12@@std@@YAXPAU_HTTP_POST_DATA@CHTTPUploadFile@@ABU12@@Z 1003fb30 f i HTTPUploadFile.obj
 0002:00020bd0       ??$_Destroy@U_HTTP_POST_DATA@CHTTPUploadFile@@@std@@YAXPAU_HTTP_POST_DATA@CHTTPUploadFile@@@Z 1003fbd0 f i HTTPUploadFile.obj
 0002:00020c00       ??$unchecked_uninitialized_copy@PAU_HTTP_UPLOAD_FILE_ARGUMENT@CHTTPUploadFile@@PAU12@V?$allocator@U_HTTP_UPLOAD_FILE_ARGUMENT@CHTTPUploadFile@@@std@@@stdext@@YAPAU_HTTP_UPLOAD_FILE_ARGUMENT@CHTTPUploadFile@@PAU12@00AAV?$allocator@U_HTTP_UPLOAD_FILE_ARGUMENT@CHTTPUploadFile@@@std@@@Z 1003fc00 f i HTTPUploadFile.obj
 0002:00020cb0       ??$_Iter_cat@PAU_HTTP_UPLOAD_FILE_ARGUMENT@CHTTPUploadFile@@@std@@YA?AUrandom_access_iterator_tag@0@ABQAU_HTTP_UPLOAD_FILE_ARGUMENT@CHTTPUploadFile@@@Z 1003fcb0 f i HTTPUploadFile.obj
 0002:00020d20       ??$_Debug_range2@PAU_HTTP_UPLOAD_FILE_ARGUMENT@CHTTPUploadFile@@@std@@YAXPAU_HTTP_UPLOAD_FILE_ARGUMENT@CHTTPUploadFile@@0PB_WIUrandom_access_iterator_tag@0@@Z 1003fd20 f i HTTPUploadFile.obj
 0002:00020dd0       ??$_Copy_backward_opt@PAU_HTTP_UPLOAD_FILE_ARGUMENT@CHTTPUploadFile@@PAU12@Uforward_iterator_tag@std@@@std@@YAPAU_HTTP_UPLOAD_FILE_ARGUMENT@CHTTPUploadFile@@PAU12@00Uforward_iterator_tag@0@U_Nonscalar_ptr_iterator_tag@0@U_Range_checked_iterator_tag@0@@Z 1003fdd0 f i HTTPUploadFile.obj
 0002:00020e70       ??$unchecked_uninitialized_copy@PAU_HTTP_POST_DATA@CHTTPUploadFile@@PAU12@V?$allocator@U_HTTP_POST_DATA@CHTTPUploadFile@@@std@@@stdext@@YAPAU_HTTP_POST_DATA@CHTTPUploadFile@@PAU12@00AAV?$allocator@U_HTTP_POST_DATA@CHTTPUploadFile@@@std@@@Z 1003fe70 f i HTTPUploadFile.obj
 0002:00020f20       ??$_Iter_cat@PAU_HTTP_POST_DATA@CHTTPUploadFile@@@std@@YA?AUrandom_access_iterator_tag@0@ABQAU_HTTP_POST_DATA@CHTTPUploadFile@@@Z 1003ff20 f i HTTPUploadFile.obj
 0002:00020f90       ??$_Debug_range2@PAU_HTTP_POST_DATA@CHTTPUploadFile@@@std@@YAXPAU_HTTP_POST_DATA@CHTTPUploadFile@@0PB_WIUrandom_access_iterator_tag@0@@Z 1003ff90 f i HTTPUploadFile.obj
 0002:00021040       ??$_Copy_backward_opt@PAU_HTTP_POST_DATA@CHTTPUploadFile@@PAU12@Uforward_iterator_tag@std@@@std@@YAPAU_HTTP_POST_DATA@CHTTPUploadFile@@PAU12@00Uforward_iterator_tag@0@U_Nonscalar_ptr_iterator_tag@0@U_Range_checked_iterator_tag@0@@Z 10040040 f i HTTPUploadFile.obj
 0002:000210e0       ??$_Uninit_copy@PAU_HTTP_UPLOAD_FILE_ARGUMENT@CHTTPUploadFile@@PAU12@V?$allocator@U_HTTP_UPLOAD_FILE_ARGUMENT@CHTTPUploadFile@@@std@@@std@@YAPAU_HTTP_UPLOAD_FILE_ARGUMENT@CHTTPUploadFile@@PAU12@00AAV?$allocator@U_HTTP_UPLOAD_FILE_ARGUMENT@CHTTPUploadFile@@@0@U_Nonscalar_ptr_iterator_tag@0@U_Range_checked_iterator_tag@0@@Z 100400e0 f i HTTPUploadFile.obj
 0002:00021240       ??$_Debug_pointer@U_HTTP_UPLOAD_FILE_ARGUMENT@CHTTPUploadFile@@@std@@YAXPAU_HTTP_UPLOAD_FILE_ARGUMENT@CHTTPUploadFile@@PB_WI@Z 10040240 f i HTTPUploadFile.obj
 0002:000212b0       ??$_Uninit_copy@PAU_HTTP_POST_DATA@CHTTPUploadFile@@PAU12@V?$allocator@U_HTTP_POST_DATA@CHTTPUploadFile@@@std@@@std@@YAPAU_HTTP_POST_DATA@CHTTPUploadFile@@PAU12@00AAV?$allocator@U_HTTP_POST_DATA@CHTTPUploadFile@@@0@U_Nonscalar_ptr_iterator_tag@0@U_Range_checked_iterator_tag@0@@Z 100402b0 f i HTTPUploadFile.obj
 0002:00021400       ??$_Debug_pointer@U_HTTP_POST_DATA@CHTTPUploadFile@@@std@@YAXPAU_HTTP_POST_DATA@CHTTPUploadFile@@PB_WI@Z 10040400 f i HTTPUploadFile.obj
 0002:00021470       ??0CMailMessage@@QAE@XZ    10040470 f   MailMessage.obj
 0002:00021640       ??_ECMailMessage@@UAEPAXI@Z 10040640 f i MailMessage.obj
 0002:00021640       ??_GCMailMessage@@UAEPAXI@Z 10040640 f i MailMessage.obj
 0002:000216b0       ??1CMailMessage@@UAE@XZ    100406b0 f   MailMessage.obj
 0002:00021830       ?AddRecipient@CMailMessage@@QAEHPBD0W4RECIPIENTS_TYPE@1@@Z 10040830 f   MailMessage.obj
 0002:00021a10       ??0CRecipient@CMailMessage@@QAE@XZ 10040a10 f i MailMessage.obj
 0002:00021a90       ??1CRecipient@CMailMessage@@QAE@XZ 10040a90 f i MailMessage.obj
 0002:00021b10       ?GetRecipient@CMailMessage@@QAEHAAV?$CStringT@DV?$StrTraitMFC_DLL@DV?$ChTraitsCRT@D@ATL@@@@@ATL@@0HW4RECIPIENTS_TYPE@1@@Z 10040b10 f   MailMessage.obj
 0002:00021d10       ??4CRecipient@CMailMessage@@QAEAAV01@ABV01@@Z 10040d10 f i MailMessage.obj
 0002:00021da0       ?GetNumRecipients@CMailMessage@@QAEHW4RECIPIENTS_TYPE@1@@Z 10040da0 f   MailMessage.obj
 0002:00021e60       ?AddMultipleRecipients@CMailMessage@@QAEHPBDW4RECIPIENTS_TYPE@1@@Z 10040e60 f   MailMessage.obj
 0002:000223f0       ?FormatMessageA@CMailMessage@@QAEXXZ 100413f0 f   MailMessage.obj
 0002:000224b0       ?SetCharsPerLine@CMailMessage@@QAEXI@Z 100414b0 f   MailMessage.obj
 0002:00022500       ?GetCharsPerLine@CMailMessage@@QAEIXZ 10041500 f   MailMessage.obj
 0002:00022540       ?prepare_header@CMailMessage@@MAEXXZ 10041540 f   MailMessage.obj
 0002:00022d50       ?Format@CTime@ATL@@QBE?AV?$CStringT@DV?$StrTraitMFC_DLL@DV?$ChTraitsCRT@D@ATL@@@@@2@PBD@Z 10041d50 f i MailMessage.obj
 0002:00022f00       ?prepare_body@CMailMessage@@MAEXXZ 10041f00 f   MailMessage.obj
 0002:00022fe0       ?start_header@CMailMessage@@MAEXXZ 10041fe0 f   MailMessage.obj
 0002:00023050       ?end_header@CMailMessage@@MAEXXZ 10042050 f   MailMessage.obj
 0002:000230c0       ?add_header_line@CMailMessage@@MAEXPBD@Z 100420c0 f   MailMessage.obj
 0002:00023200       ??HATL@@YA?AV?$CStringT@DV?$StrTraitMFC_DLL@DV?$ChTraitsCRT@D@ATL@@@@@0@PBDABV10@@Z 10042200 f i MailMessage.obj
 0002:000233b0       ??9ATL@@YA_NABV?$CStringT@DV?$StrTraitMFC_DLL@DV?$ChTraitsCRT@D@ATL@@@@@0@PBD@Z 100423b0 f i MailMessage.obj
 0002:00023420       ??0?$CArray@VCRecipient@CMailMessage@@AAV12@@@QAE@XZ 10042420 f i MailMessage.obj
 0002:000234b0       ?GetSize@?$CArray@VCRecipient@CMailMessage@@AAV12@@@QBEHXZ 100424b0 f i MailMessage.obj
 0002:000234f0       ?GetUpperBound@?$CArray@VCRecipient@CMailMessage@@AAV12@@@QBEHXZ 100424f0 f i MailMessage.obj
 0002:00023530       ?Add@?$CArray@VCRecipient@CMailMessage@@AAV12@@@QAEHAAVCRecipient@CMailMessage@@@Z 10042530 f i MailMessage.obj
 0002:000235a0       ??A?$CArray@VCRecipient@CMailMessage@@AAV12@@@QAEAAVCRecipient@CMailMessage@@H@Z 100425a0 f i MailMessage.obj
 0002:00023600       ??1?$CArray@VCRecipient@CMailMessage@@AAV12@@@UAE@XZ 10042600 f i MailMessage.obj
 0002:00023730       ?Serialize@?$CArray@VCRecipient@CMailMessage@@AAV12@@@UAEXAAVCArchive@@@Z 10042730 f i MailMessage.obj
 0002:00023800       ?Dump@?$CArray@VCRecipient@CMailMessage@@AAV12@@@UBEXAAVCDumpContext@@@Z 10042800 f i MailMessage.obj
 0002:000238e0       ?AssertValid@?$CArray@VCRecipient@CMailMessage@@AAV12@@@UBEXXZ 100428e0 f i MailMessage.obj
 0002:00023a40       ??_E?$CArray@VCRecipient@CMailMessage@@AAV12@@@UAEPAXI@Z 10042a40 f i MailMessage.obj
 0002:00023a40       ??_G?$CArray@VCRecipient@CMailMessage@@AAV12@@@UAEPAXI@Z 10042a40 f i MailMessage.obj
 0002:00023ab0       ??_GCRecipient@CMailMessage@@QAEPAXI@Z 10042ab0 f i MailMessage.obj
 0002:00023b20       ?SetSize@?$CArray@VCRecipient@CMailMessage@@AAV12@@@QAEXHH@Z 10042b20 f i MailMessage.obj
 0002:00024180       ?memcpy_s@Checked@ATL@@YAXPAXIPBXI@Z 10043180 f i MailMessage.obj
 0002:00024200       ?ElementAt@?$CArray@VCRecipient@CMailMessage@@AAV12@@@QAEAAVCRecipient@CMailMessage@@H@Z 10043200 f i MailMessage.obj
 0002:000242b0       ?SetAtGrow@?$CArray@VCRecipient@CMailMessage@@AAV12@@@QAEXHAAVCRecipient@CMailMessage@@@Z 100432b0 f i MailMessage.obj
 0002:00024380       ??$SerializeElements@VCRecipient@CMailMessage@@@@YGXAAVCArchive@@PAVCRecipient@CMailMessage@@H@Z 10043380 f i MailMessage.obj
 0002:00024570       ??$DumpElements@VCRecipient@CMailMessage@@@@YGXAAVCDumpContext@@PBVCRecipient@CMailMessage@@H@Z 10043570 f i MailMessage.obj
 0002:00024660       ?_GetBaseClass@CMainDlg@@KGPAUCRuntimeClass@@XZ 10043660 f   MainDlg.obj
 0002:000246b0       ?GetThisClass@CMainDlg@@SGPAUCRuntimeClass@@XZ 100436b0 f   MainDlg.obj
 0002:000246f0       ?GetRuntimeClass@CMainDlg@@UBEPAUCRuntimeClass@@XZ 100436f0 f   MainDlg.obj
 0002:00024730       ??0CMainDlg@@QAE@PAVCWnd@@@Z 10043730 f   MainDlg.obj
 0002:000248a0       ??_ECMainDlg@@UAEPAXI@Z    100438a0 f i MainDlg.obj
 0002:000248a0       ??_GCMainDlg@@UAEPAXI@Z    100438a0 f i MainDlg.obj
 0002:00024910       ??1CMainDlg@@UAE@XZ        10043910 f   MainDlg.obj
 0002:00024a80       ?DoDataExchange@CMainDlg@@MAEXPAVCDataExchange@@@Z 10043a80 f   MainDlg.obj
 0002:00024b00       ?GetMessageMap@CMainDlg@@MBEPBUAFX_MSGMAP@@XZ 10043b00 f   MainDlg.obj
 0002:00024b50       ?GetThisMessageMap@CMainDlg@@KGPBUAFX_MSGMAP@@XZ 10043b50 f   MainDlg.obj
 0002:00024b90       ?OnBnClickedOk@CMainDlg@@QAEXXZ 10043b90 f   MainDlg.obj
 0002:00024bf0       ?OnPaint@CMainDlg@@QAEXXZ  10043bf0 f   MainDlg.obj
 0002:00024ea0       ?OnInitDialog@CMainDlg@@UAEHXZ 10043ea0 f   MainDlg.obj
 0002:000250b0       ?OnDestroy@CMainDlg@@QAEXXZ 100440b0 f   MainDlg.obj
 0002:00025100       ??0CMIMECode@@QAE@XZ       10044100 f   MIMECode.obj
 0002:00025150       ??_GCMIMECode@@UAEPAXI@Z   10044150 f i MIMECode.obj
 0002:00025150       ??_ECMIMECode@@UAEPAXI@Z   10044150 f i MIMECode.obj
 0002:000251c0       ??1CMIMECode@@UAE@XZ       100441c0 f   MIMECode.obj
 0002:00025200       ??0CMIMEContentAgent@@QAE@H@Z 10044200 f   MIMEContentAgent.obj
 0002:00025260       ??_GCMIMEContentAgent@@UAEPAXI@Z 10044260 f i MIMEContentAgent.obj
 0002:00025260       ??_ECMIMEContentAgent@@UAEPAXI@Z 10044260 f i MIMEContentAgent.obj
 0002:000252d0       ??1CMIMEContentAgent@@UAE@XZ 100442d0 f   MIMEContentAgent.obj
 0002:00025310       ?QueryType@CMIMEContentAgent@@QAEHH@Z 10044310 f   MIMEContentAgent.obj
 0002:00025360       ??0CMIMEMessage@@QAE@XZ    10044360 f   MIMEMessage.obj
 0002:00025600       ??_ECMIMEMessage@@UAEPAXI@Z 10044600 f i MIMEMessage.obj
 0002:00025600       ??_GCMIMEMessage@@UAEPAXI@Z 10044600 f i MIMEMessage.obj
 0002:00025670       ??1CMIMEMessage@@UAE@XZ    10044670 f   MIMEMessage.obj
 0002:00025780       ?AddMIMEPart@CMIMEMessage@@QAEHPBDH0HH@Z 10044780 f   MIMEMessage.obj
 0002:00025920       ??0CMIMEPart@CMIMEMessage@@QAE@XZ 10044920 f i MIMEMessage.obj
 0002:000259a0       ??1CMIMEPart@CMIMEMessage@@QAE@XZ 100449a0 f i MIMEMessage.obj
 0002:00025a20       ?prepare_header@CMIMEMessage@@MAEXXZ 10044a20 f   MIMEMessage.obj
 0002:00025bd0       ?prepare_body@CMIMEMessage@@MAEXXZ 10044bd0 f   MIMEMessage.obj
 0002:00025cf0       ?insert_boundary@CMIMEMessage@@IAEXAAV?$CStringT@DV?$StrTraitMFC_DLL@DV?$ChTraitsCRT@D@ATL@@@@@ATL@@@Z 10044cf0 f   MIMEMessage.obj
 0002:00025ed0       ?insert_message_end@CMIMEMessage@@IAEXAAV?$CStringT@DV?$StrTraitMFC_DLL@DV?$ChTraitsCRT@D@ATL@@@@@ATL@@@Z 10044ed0 f   MIMEMessage.obj
 0002:000260b0       ?register_mime_type@CMIMEMessage@@IAEXPAVCMIMEContentAgent@@@Z 100450b0 f   MIMEMessage.obj
 0002:00026140       ?append_mime_parts@CMIMEMessage@@MAEXXZ 10045140 f   MIMEMessage.obj
 0002:000262b0       ??0CMIMETypeManager@CMIMEMessage@@QAE@XZ 100452b0 f   MIMEMessage.obj
 0002:00026370       ??_ECMIMETypeManager@CMIMEMessage@@UAEPAXI@Z 10045370 f i MIMEMessage.obj
 0002:00026370       ??_GCMIMETypeManager@CMIMEMessage@@UAEPAXI@Z 10045370 f i MIMEMessage.obj
 0002:000263e0       ??1CMIMETypeManager@CMIMEMessage@@UAE@XZ 100453e0 f   MIMEMessage.obj
 0002:00026570       ?RegisterMIMEType@CMIMETypeManager@CMIMEMessage@@QAEXPAVCMIMEContentAgent@@@Z 10045570 f   MIMEMessage.obj
 0002:00026610       ?GetHandler@CMIMETypeManager@CMIMEMessage@@QAEPAVCMIMEContentAgent@@H@Z 10045610 f   MIMEMessage.obj
 0002:00026700       ??0?$CList@VCMIMEPart@CMIMEMessage@@AAV12@@@QAE@H@Z 10045700 f i MIMEMessage.obj
 0002:00026810       ?AddHead@?$CList@VCMIMEPart@CMIMEMessage@@AAV12@@@QAEPAU__POSITION@@AAVCMIMEPart@CMIMEMessage@@@Z 10045810 f i MIMEMessage.obj
 0002:000268e0       ?AddTail@?$CList@VCMIMEPart@CMIMEMessage@@AAV12@@@QAEPAU__POSITION@@AAVCMIMEPart@CMIMEMessage@@@Z 100458e0 f i MIMEMessage.obj
 0002:000269a0       ?GetHeadPosition@?$CList@VCMIMEPart@CMIMEMessage@@AAV12@@@QBEPAU__POSITION@@XZ 100459a0 f i MIMEMessage.obj
 0002:000269e0       ?GetNext@?$CList@VCMIMEPart@CMIMEMessage@@AAV12@@@QAEAAVCMIMEPart@CMIMEMessage@@AAPAU__POSITION@@@Z 100459e0 f i MIMEMessage.obj
 0002:00026a80       ??1?$CList@VCMIMEPart@CMIMEMessage@@AAV12@@@UAE@XZ 10045a80 f i MIMEMessage.obj
 0002:00026b50       ?Serialize@?$CList@VCMIMEPart@CMIMEMessage@@AAV12@@@UAEXAAVCArchive@@@Z 10045b50 f i MIMEMessage.obj
 0002:00026d60       ?Dump@?$CList@VCMIMEPart@CMIMEMessage@@AAV12@@@UBEXAAVCDumpContext@@@Z 10045d60 f i MIMEMessage.obj
 0002:00026f20       ?AssertValid@?$CList@VCMIMEPart@CMIMEMessage@@AAV12@@@UBEXXZ 10045f20 f i MIMEMessage.obj
 0002:00027030       ??0?$CList@PAVCMIMEContentAgent@@PAV1@@@QAE@H@Z 10046030 f i MIMEMessage.obj
 0002:00027140       ?AddTail@?$CList@PAVCMIMEContentAgent@@PAV1@@@QAEPAU__POSITION@@PAVCMIMEContentAgent@@@Z 10046140 f i MIMEMessage.obj
 0002:00027200       ?GetHeadPosition@?$CList@PAVCMIMEContentAgent@@PAV1@@@QBEPAU__POSITION@@XZ 10046200 f i MIMEMessage.obj
 0002:00027240       ?GetNext@?$CList@PAVCMIMEContentAgent@@PAV1@@@QAEAAPAVCMIMEContentAgent@@AAPAU__POSITION@@@Z 10046240 f i MIMEMessage.obj
 0002:000272e0       ??1?$CList@PAVCMIMEContentAgent@@PAV1@@@UAE@XZ 100462e0 f i MIMEMessage.obj
 0002:000273b0       ?Serialize@?$CList@PAVCMIMEContentAgent@@PAV1@@@UAEXAAVCArchive@@@Z 100463b0 f i MIMEMessage.obj
 0002:00027540       ?Dump@?$CList@PAVCMIMEContentAgent@@PAV1@@@UBEXAAVCDumpContext@@@Z 10046540 f i MIMEMessage.obj
 0002:00027690       ?AssertValid@?$CList@PAVCMIMEContentAgent@@PAV1@@@UBEXXZ 10046690 f i MIMEMessage.obj
 0002:000277a0       ??_G?$CList@VCMIMEPart@CMIMEMessage@@AAV12@@@UAEPAXI@Z 100467a0 f i MIMEMessage.obj
 0002:000277a0       ??_E?$CList@VCMIMEPart@CMIMEMessage@@AAV12@@@UAEPAXI@Z 100467a0 f i MIMEMessage.obj
 0002:00027810       ??4CMIMEPart@CMIMEMessage@@QAEAAV01@ABV01@@Z 10046810 f i MIMEMessage.obj
 0002:000278d0       ??_E?$CList@PAVCMIMEContentAgent@@PAV1@@@UAEPAXI@Z 100468d0 f i MIMEMessage.obj
 0002:000278d0       ??_G?$CList@PAVCMIMEContentAgent@@PAV1@@@UAEPAXI@Z 100468d0 f i MIMEMessage.obj
 0002:00027940       ?RemoveAll@?$CList@VCMIMEPart@CMIMEMessage@@AAV12@@@QAEXXZ 10046940 f i MIMEMessage.obj
 0002:00027a20       ?NewNode@?$CList@VCMIMEPart@CMIMEMessage@@AAV12@@@IAEPAUCNode@1@PAU21@0@Z 10046a20 f i MIMEMessage.obj
 0002:00027c00       ?data@CPlex@@QAEPAXXZ      10046c00 f i MIMEMessage.obj
 0002:00027c40       ??$SerializeElements@VCMIMEPart@CMIMEMessage@@@@YGXAAVCArchive@@PAVCMIMEPart@CMIMEMessage@@H@Z 10046c40 f i MIMEMessage.obj
 0002:00027e30       ??$DumpElements@VCMIMEPart@CMIMEMessage@@@@YGXAAVCDumpContext@@PBVCMIMEPart@CMIMEMessage@@H@Z 10046e30 f i MIMEMessage.obj
 0002:00027f20       ?RemoveAll@?$CList@PAVCMIMEContentAgent@@PAV1@@@QAEXXZ 10046f20 f i MIMEMessage.obj
 0002:00027ff0       ?NewNode@?$CList@PAVCMIMEContentAgent@@PAV1@@@IAEPAUCNode@1@PAU21@0@Z 10046ff0 f i MIMEMessage.obj
 0002:000281a0       ??$SerializeElements@PAVCMIMEContentAgent@@@@YGXAAVCArchive@@PAPAVCMIMEContentAgent@@H@Z 100471a0 f i MIMEMessage.obj
 0002:00028390       ??$DumpElements@PAVCMIMEContentAgent@@@@YGXAAVCDumpContext@@PBQAVCMIMEContentAgent@@H@Z 10047390 f i MIMEMessage.obj
 0002:00028480       ??_GCMIMEPart@CMIMEMessage@@QAEPAXI@Z 10047480 f i MIMEMessage.obj
 0002:000284f0       ??0CSMTP@@QAE@PBDI@Z       100474f0 f   SMTP.obj
 0002:00028670       ??_GCSMTP@@UAEPAXI@Z       10047670 f i SMTP.obj
 0002:00028670       ??_ECSMTP@@UAEPAXI@Z       10047670 f i SMTP.obj
 0002:000286e0       ??1CSMTP@@UAE@XZ           100476e0 f   SMTP.obj
 0002:000287d0       ?GetServerHostName@CSMTP@@QAE?AV?$CStringT@DV?$StrTraitMFC_DLL@DV?$ChTraitsCRT@D@ATL@@@@@ATL@@XZ 100477d0 f   SMTP.obj
 0002:00028860       ?Connect@CSMTP@@QAEHXZ     10047860 f   SMTP.obj
 0002:00028f80       ?ConnectEx@CSMTP@@QAEHXZ   10047f80 f   SMTP.obj
 0002:000296d0       ?Disconnect@CSMTP@@QAEHXZ  100486d0 f   SMTP.obj
 0002:000298c0       ?GetPort@CSMTP@@QAEIXZ     100488c0 f   SMTP.obj
 0002:00029900       ?GetLastError@CSMTP@@QAE?AV?$CStringT@DV?$StrTraitMFC_DLL@DV?$ChTraitsCRT@D@ATL@@@@@ATL@@XZ 10048900 f   SMTP.obj
 0002:00029990       ?SendMessageA@CSMTP@@QAEHPAVCMailMessage@@@Z 10048990 f   SMTP.obj
 0002:00029ac0       ?FormatMailMessage@CSMTP@@UAEHPAVCMailMessage@@@Z 10048ac0 f   SMTP.obj
 0002:00029b80       ?SetServerProperties@CSMTP@@QAEXPBDI@Z 10048b80 f   SMTP.obj
 0002:00029c30       ?cook_body@CSMTP@@AAE?AV?$CStringT@DV?$StrTraitMFC_DLL@DV?$ChTraitsCRT@D@ATL@@@@@ATL@@PAVCMailMessage@@@Z 10048c30 f   SMTP.obj
 0002:0002a0e0       ?transmit_message@CSMTP@@MAEHPAVCMailMessage@@@Z 100490e0 f   SMTP.obj
 0002:0002ab60       ?get_response@CSMTP@@AAEHI@Z 10049b60 f   SMTP.obj
 0002:0002b000       ?Cancel@CSMTP@@QAEXXZ      1004a000 f   SMTP.obj
 0002:0002b080       ?AuthLogin@CSMTP@@QAEHXZ   1004a080 f   SMTP.obj
 0002:0002b9b0       ?T2A@@YAPADPAD@Z           1004a9b0 f i SMTP.obj
 0002:0002b9f0       ?SendStr@CSMTP@@QAEXPBD@Z  1004a9f0 f   SMTP.obj
 0002:0002ba70       ??HATL@@YA?AV?$CStringT@DV?$StrTraitMFC_DLL@DV?$ChTraitsCRT@D@ATL@@@@@0@ABV10@PBD@Z 1004aa70 f i SMTP.obj
 0002:0002bc20       ??8ATL@@YA_NABV?$CStringT@DV?$StrTraitMFC_DLL@DV?$ChTraitsCRT@D@ATL@@@@@0@PBD@Z 1004ac20 f i SMTP.obj
 0002:0002bc90       ??0CTextPlain@@QAE@HI@Z    1004ac90 f   TextPlain.obj
 0002:0002bd00       ??_ECTextPlain@@UAEPAXI@Z  1004ad00 f i TextPlain.obj
 0002:0002bd00       ??_GCTextPlain@@UAEPAXI@Z  1004ad00 f i TextPlain.obj
 0002:0002bd70       ??1CTextPlain@@UAE@XZ      1004ad70 f   TextPlain.obj
 0002:0002bdd0       ?GetContentTypeString@CTextPlain@@UAE?AV?$CStringT@DV?$StrTraitMFC_DLL@DV?$ChTraitsCRT@D@ATL@@@@@ATL@@XZ 1004add0 f   TextPlain.obj
 0002:0002bf20       ?AppendPart@CTextPlain@@UAEHPBD0HHAAV?$CStringT@DV?$StrTraitMFC_DLL@DV?$ChTraitsCRT@D@ATL@@@@@ATL@@@Z 1004af20 f   TextPlain.obj
 0002:0002c200       ?build_sub_header@CTextPlain@@MAE?AV?$CStringT@DV?$StrTraitMFC_DLL@DV?$ChTraitsCRT@D@ATL@@@@@ATL@@PBD0HH@Z 1004b200 f   TextPlain.obj
 0002:0002c440       ?wrap_text@CTextPlain@@IAE?AV?$CStringT@DV?$StrTraitMFC_DLL@DV?$ChTraitsCRT@D@ATL@@@@@ATL@@PBD@Z 1004b440 f   TextPlain.obj
 0002:0002c9e0       ?getLastWriteFileTime@CUtility@@SA?AU_FILETIME@@ABV?$CStringT@DV?$StrTraitMFC_DLL@DV?$ChTraitsCRT@D@ATL@@@@@ATL@@@Z 1004b9e0 f   Utility.obj
 0002:0002cb20       ?getAppName@CUtility@@SA?AV?$CStringT@DV?$StrTraitMFC_DLL@DV?$ChTraitsCRT@D@ATL@@@@@ATL@@XZ 1004bb20 f   Utility.obj
 0002:0002cde0       ?getTempFileName@CUtility@@SA?AV?$CStringT@DV?$StrTraitMFC_DLL@DV?$ChTraitsCRT@D@ATL@@@@@ATL@@XZ 1004bde0 f   Utility.obj
 0002:0002cfd0       ?getSaveFileName@CUtility@@SA?AV?$CStringT@DV?$StrTraitMFC_DLL@DV?$ChTraitsCRT@D@ATL@@@@@ATL@@XZ 1004bfd0 f   Utility.obj
 0002:0002d2f0       ?GetAppPath@CUtility@@SA?AV?$CStringT@DV?$StrTraitMFC_DLL@DV?$ChTraitsCRT@D@ATL@@@@@ATL@@XZ 1004c2f0 f   Utility.obj
 0002:0002d5e0       ??0CZLib@@QAE@XZ           1004c5e0 f   zlibcpp.obj
 0002:0002d630       ??_GCZLib@@UAEPAXI@Z       1004c630 f i zlibcpp.obj
 0002:0002d630       ??_ECZLib@@UAEPAXI@Z       1004c630 f i zlibcpp.obj
 0002:0002d6a0       ??1CZLib@@UAE@XZ           1004c6a0 f   zlibcpp.obj
 0002:0002d710       ?Open@CZLib@@QAEHV?$CStringT@DV?$StrTraitMFC_DLL@DV?$ChTraitsCRT@D@ATL@@@@@ATL@@H@Z 1004c710 f   zlibcpp.obj
 0002:0002d7c0       ?Close@CZLib@@QAEXXZ       1004c7c0 f   zlibcpp.obj
 0002:0002d830       ?AddFile@CZLib@@QAEHV?$CStringT@DV?$StrTraitMFC_DLL@DV?$ChTraitsCRT@D@ATL@@@@@ATL@@@Z 1004c830 f   zlibcpp.obj
 0002:0002dc12       ?UnicodeToAscii@stringhelper@utility@common@@YA?AV?$basic_string@DU?$char_traits@D@std@@V?$allocator@D@2@@std@@ABV?$basic_string@_WU?$char_traits@_W@std@@V?$allocator@_W@2@@5@@Z 1004cc12 f   commonlibraryd:CommonLibraryd.dll
 0002:0002dc18       ?Get179AppPath@systemhelper@utility@common@@YA?AV?$basic_string@_WU?$char_traits@_W@std@@V?$allocator@_W@2@@std@@XZ 1004cc18 f   commonlibraryd:CommonLibraryd.dll
 0002:0002dc1e       _InternetAttemptConnect@4  1004cc1e f   WinInet:WININET.dll
 0002:0002dc24       _InternetCloseHandle@4     1004cc24 f   WinInet:WININET.dll
 0002:0002dc2a       _InternetConnectA@32       1004cc2a f   WinInet:WININET.dll
 0002:0002dc30       _InternetOpenA@20          1004cc30 f   WinInet:WININET.dll
 0002:0002dc36       _HttpEndRequestA@16        1004cc36 f   WinInet:WININET.dll
 0002:0002dc3c       _InternetWriteFile@16      1004cc3c f   WinInet:WININET.dll
 0002:0002dc42       _HttpSendRequestExA@20     1004cc42 f   WinInet:WININET.dll
 0002:0002dc48       _HttpAddRequestHeadersA@16 1004cc48 f   WinInet:WININET.dll
 0002:0002dc4e       _HttpOpenRequestA@32       1004cc4e f   WinInet:WININET.dll
 0002:0002dc54       _HttpQueryInfoA@20         1004cc54 f   WinInet:WININET.dll
 0002:0002dc5a       _InternetReadFile@16       1004cc5a f   WinInet:WININET.dll
 0002:0002dc60       _zipOpen@8                 1004cc60 f   zipl:zipl.dll
 0002:0002dc66       _zipClose@8                1004cc66 f   zipl:zipl.dll
 0002:0002dc6c       _zipCloseFileInZip@4       1004cc6c f   zipl:zipl.dll
 0002:0002dc72       _zipWriteInFileInZip@12    1004cc72 f   zipl:zipl.dll
 0002:0002dc78       _zipOpenNewFileInZip@40    1004cc78 f   zipl:zipl.dll
 0002:0002dc7e       ??3@YAXPAX@Z               1004cc7e f   mfc90d:mfc90d.dll
 0002:0002dc84       ?Close@CStdioFile@@UAEXXZ  1004cc84 f   mfc90d:mfc90d.dll
 0002:0002dc8a       ??1?$CStringT@DV?$StrTraitMFC_DLL@DV?$ChTraitsCRT@D@ATL@@@@@ATL@@QAE@XZ 1004cc8a f   mfc90d:mfc90d.dll
 0002:0002dc90       ??Y?$CStringT@DV?$StrTraitMFC_DLL@DV?$ChTraitsCRT@D@ATL@@@@@ATL@@QAEAAV01@ABV?$CSimpleStringT@D$00@1@@Z 1004cc90 f   mfc90d:mfc90d.dll
 0002:0002dc96       ?Open@CStdioFile@@UAEHPBDIPAVCFileException@@@Z 1004cc96 f   mfc90d:mfc90d.dll
 0002:0002dc9c       ??1CStdioFile@@UAE@XZ      1004cc9c f   mfc90d:mfc90d.dll
 0002:0002dca2       ?AfxAssertFailedLine@@YGHPBDH@Z 1004cca2 f   mfc90d:mfc90d.dll
 0002:0002dca8       ??0CStdioFile@@QAE@XZ      1004cca8 f   mfc90d:mfc90d.dll
 0002:0002dcae       ??0?$CStringT@DV?$StrTraitMFC_DLL@DV?$ChTraitsCRT@D@ATL@@@@@ATL@@QAE@ABV01@@Z 1004ccae f   mfc90d:mfc90d.dll
 0002:0002dcb4       ??Y?$CStringT@DV?$StrTraitMFC_DLL@DV?$ChTraitsCRT@D@ATL@@@@@ATL@@QAEAAV01@PBD@Z 1004ccb4 f   mfc90d:mfc90d.dll
 0002:0002dcba       ??B?$CSimpleStringT@D$00@ATL@@QBEPBDXZ 1004ccba f   mfc90d:mfc90d.dll
 0002:0002dcc0       ??4?$CStringT@DV?$StrTraitMFC_DLL@DV?$ChTraitsCRT@D@ATL@@@@@ATL@@QAEAAV01@PBD@Z 1004ccc0 f   mfc90d:mfc90d.dll
 0002:0002dcc6       ?Format@?$CStringT@DV?$StrTraitMFC_DLL@DV?$ChTraitsCRT@D@ATL@@@@@ATL@@QAAXPBDZZ 1004ccc6 f   mfc90d:mfc90d.dll
 0002:0002dccc       ??0?$CStringT@DV?$StrTraitMFC_DLL@DV?$ChTraitsCRT@D@ATL@@@@@ATL@@QAE@XZ 1004cccc f   mfc90d:mfc90d.dll
 0002:0002dcd2       ??3@YAXPAXPBDH@Z           1004ccd2 f   mfc90d:mfc90d.dll
 0002:0002dcd8       ??2@YAPAXIPBDH@Z           1004ccd8 f   mfc90d:mfc90d.dll
 0002:0002dcde       ?GetLength@?$CSimpleStringT@D$00@ATL@@QBEHXZ 1004ccde f   mfc90d:mfc90d.dll
 0002:0002dce4       ??Y?$CStringT@DV?$StrTraitMFC_DLL@DV?$ChTraitsCRT@D@ATL@@@@@ATL@@QAEAAV01@D@Z 1004cce4 f   mfc90d:mfc90d.dll
 0002:0002dcea       ??A?$CSimpleStringT@D$00@ATL@@QBEDH@Z 1004ccea f   mfc90d:mfc90d.dll
 0002:0002dcf0       ??0?$CStringT@DV?$StrTraitMFC_DLL@DV?$ChTraitsCRT@D@ATL@@@@@ATL@@QAE@PBD@Z 1004ccf0 f   mfc90d:mfc90d.dll
 0002:0002dcf6       ?Append@?$CSimpleStringT@D$00@ATL@@QAEXPBD@Z 1004ccf6 f   mfc90d:mfc90d.dll
 0002:0002dcfc       ?AppendFormat@?$CStringT@DV?$StrTraitMFC_DLL@DV?$ChTraitsCRT@D@ATL@@@@@ATL@@QAAXPBDZZ 1004ccfc f   mfc90d:mfc90d.dll
 0002:0002dd02       ?GetAt@?$CSimpleStringT@D$00@ATL@@QBEDH@Z 1004cd02 f   mfc90d:mfc90d.dll
 0002:0002dd08       ?GetBuffer@?$CSimpleStringT@D$00@ATL@@QAEPADXZ 1004cd08 f   mfc90d:mfc90d.dll
 0002:0002dd0e       ?GetBuffer@?$CSimpleStringT@D$00@ATL@@QAEPADH@Z 1004cd0e f   mfc90d:mfc90d.dll
 0002:0002dd14       ??4?$CStringT@DV?$StrTraitMFC_DLL@DV?$ChTraitsCRT@D@ATL@@@@@ATL@@QAEAAV01@ABV01@@Z 1004cd14 f   mfc90d:mfc90d.dll
 0002:0002dd1a       ?LoadStringA@?$CStringT@DV?$StrTraitMFC_DLL@DV?$ChTraitsCRT@D@ATL@@@@@ATL@@QAEHI@Z 1004cd1a f   mfc90d:mfc90d.dll
 0002:0002dd20       ??1AFX_MAINTAIN_STATE2@@QAE@XZ 1004cd20 f   mfc90d:mfc90d.dll
 0002:0002dd26       ?DoModal@CDialog@@UAEHXZ   1004cd26 f   mfc90d:mfc90d.dll
 0002:0002dd2c       ??0AFX_MAINTAIN_STATE2@@QAE@PAVAFX_MODULE_STATE@@@Z 1004cd2c f   mfc90d:mfc90d.dll
 0002:0002dd32       ?AfxThrowInvalidArgException@@YGXXZ 1004cd32 f   mfc90d:mfc90d.dll
 0002:0002dd38       ?AfxThrowMemoryException@@YGXXZ 1004cd38 f   mfc90d:mfc90d.dll
 0002:0002dd3e       ?Compare@?$CStringT@DV?$StrTraitMFC_DLL@DV?$ChTraitsCRT@D@ATL@@@@@ATL@@QBEHPBD@Z 1004cd3e f   mfc90d:mfc90d.dll
 0002:0002dd44       ??2@YAPAXI@Z               1004cd44 f   mfc90d:mfc90d.dll
 0002:0002dd4a       ?ReleaseBuffer@?$CSimpleStringT@D$00@ATL@@QAEXH@Z 1004cd4a f   mfc90d:mfc90d.dll
 0002:0002dd50       ?GetThisMessageMap@CWinApp@@KGPBUAFX_MSGMAP@@XZ 1004cd50 f   mfc90d:mfc90d.dll
 0002:0002dd56       ??0CWinApp@@QAE@PBD@Z      1004cd56 f   mfc90d:mfc90d.dll
 0002:0002dd5c       ?GetRuntimeClass@CWinApp@@UBEPAUCRuntimeClass@@XZ 1004cd5c f   mfc90d:mfc90d.dll
 0002:0002dd62       ?Serialize@CObject@@UAEXAAVCArchive@@@Z 1004cd62 f   mfc90d:mfc90d.dll
 0002:0002dd68       ?AssertValid@CWinApp@@UBEXXZ 1004cd68 f   mfc90d:mfc90d.dll
 0002:0002dd6e       ?Dump@CWinApp@@UBEXAAVCDumpContext@@@Z 1004cd6e f   mfc90d:mfc90d.dll
 0002:0002dd74       ?OnCmdMsg@CCmdTarget@@UAEHIHPAXPAUAFX_CMDHANDLERINFO@@@Z 1004cd74 f   mfc90d:mfc90d.dll
 0002:0002dd7a       ?OnFinalRelease@CCmdTarget@@UAEXXZ 1004cd7a f   mfc90d:mfc90d.dll
 0002:0002dd80       ?IsInvokeAllowed@CCmdTarget@@UAEHJ@Z 1004cd80 f   mfc90d:mfc90d.dll
 0002:0002dd86       ?GetDispatchIID@CCmdTarget@@UAEHPAU_GUID@@@Z 1004cd86 f   mfc90d:mfc90d.dll
 0002:0002dd8c       ?GetTypeInfoCount@CCmdTarget@@UAEIXZ 1004cd8c f   mfc90d:mfc90d.dll
 0002:0002dd92       ?GetTypeLibCache@CCmdTarget@@UAEPAVCTypeLibCache@@XZ 1004cd92 f   mfc90d:mfc90d.dll
 0002:0002dd98       ?GetTypeLib@CCmdTarget@@UAEJKPAPAUITypeLib@@@Z 1004cd98 f   mfc90d:mfc90d.dll
 0002:0002dd9e       ?GetCommandMap@CCmdTarget@@MBEPBUAFX_OLECMDMAP@@XZ 1004cd9e f   mfc90d:mfc90d.dll
 0002:0002dda4       ?GetDispatchMap@CCmdTarget@@MBEPBUAFX_DISPMAP@@XZ 1004cda4 f   mfc90d:mfc90d.dll
 0002:0002ddaa       ?GetConnectionMap@CCmdTarget@@MBEPBUAFX_CONNECTIONMAP@@XZ 1004cdaa f   mfc90d:mfc90d.dll
 0002:0002ddb0       ?GetInterfaceMap@CCmdTarget@@MBEPBUAFX_INTERFACEMAP@@XZ 1004cdb0 f   mfc90d:mfc90d.dll
 0002:0002ddb6       ?GetEventSinkMap@CCmdTarget@@MBEPBUAFX_EVENTSINKMAP@@XZ 1004cdb6 f   mfc90d:mfc90d.dll
 0002:0002ddbc       ?OnCreateAggregates@CCmdTarget@@UAEHXZ 1004cdbc f   mfc90d:mfc90d.dll
 0002:0002ddc2       ?GetInterfaceHook@CCmdTarget@@UAEPAUIUnknown@@PBX@Z 1004cdc2 f   mfc90d:mfc90d.dll
 0002:0002ddc8       ?GetExtraConnectionPoints@CCmdTarget@@MAEHPAVCPtrArray@@@Z 1004cdc8 f   mfc90d:mfc90d.dll
 0002:0002ddce       ?GetConnectionHook@CCmdTarget@@MAEPAUIConnectionPoint@@ABU_GUID@@@Z 1004cdce f   mfc90d:mfc90d.dll
 0002:0002ddd4       ?Run@CWinApp@@UAEHXZ       1004cdd4 f   mfc90d:mfc90d.dll
 0002:0002ddda       ?PreTranslateMessage@CWinThread@@UAEHPAUtagMSG@@@Z 1004cdda f   mfc90d:mfc90d.dll
 0002:0002dde0       ?PumpMessage@CWinThread@@UAEHXZ 1004cde0 f   mfc90d:mfc90d.dll
 0002:0002dde6       ?OnIdle@CWinApp@@UAEHJ@Z   1004cde6 f   mfc90d:mfc90d.dll
 0002:0002ddec       ?IsIdleMessage@CWinThread@@UAEHPAUtagMSG@@@Z 1004cdec f   mfc90d:mfc90d.dll
 0002:0002ddf2       ?ExitInstance@CWinApp@@UAEHXZ 1004cdf2 f   mfc90d:mfc90d.dll
 0002:0002ddf8       ?ProcessWndProcException@CWinApp@@UAEJPAVCException@@PBUtagMSG@@@Z 1004cdf8 f   mfc90d:mfc90d.dll
 0002:0002ddfe       ?ProcessMessageFilter@CWinThread@@UAEHHPAUtagMSG@@@Z 1004cdfe f   mfc90d:mfc90d.dll
 0002:0002de04       ?GetMainWnd@CWinThread@@UAEPAVCWnd@@XZ 1004ce04 f   mfc90d:mfc90d.dll
 0002:0002de0a       ?Delete@CWinThread@@UAEXXZ 1004ce0a f   mfc90d:mfc90d.dll
 0002:0002de10       ?InitLibId@CWinApp@@UAEXXZ 1004ce10 f   mfc90d:mfc90d.dll
 0002:0002de16       ?Register@CWinApp@@UAEHXZ  1004ce16 f   mfc90d:mfc90d.dll
 0002:0002de1c       ?Unregister@CWinApp@@UAEHXZ 1004ce1c f   mfc90d:mfc90d.dll
 0002:0002de22       ?OpenDocumentFile@CWinApp@@UAEPAVCDocument@@PBD@Z 1004ce22 f   mfc90d:mfc90d.dll
 0002:0002de28       ?AddToRecentFileList@CWinApp@@UAEXPBD@Z 1004ce28 f   mfc90d:mfc90d.dll
 0002:0002de2e       ?InitApplication@CWinApp@@UAEHXZ 1004ce2e f   mfc90d:mfc90d.dll
 0002:0002de34       ?SaveAllModified@CWinApp@@UAEHXZ 1004ce34 f   mfc90d:mfc90d.dll
 0002:0002de3a       ?DoMessageBox@CWinApp@@UAEHPBDII@Z 1004ce3a f   mfc90d:mfc90d.dll
 0002:0002de40       ?DoWaitCursor@CWinApp@@UAEXH@Z 1004ce40 f   mfc90d:mfc90d.dll
 0002:0002de46       ?OnDDECommand@CWinApp@@UAEHPAD@Z 1004ce46 f   mfc90d:mfc90d.dll
 0002:0002de4c       ?WinHelpA@CWinApp@@UAEXKI@Z 1004ce4c f   mfc90d:mfc90d.dll
 0002:0002de52       ?HtmlHelpA@CWinApp@@UAEXKI@Z 1004ce52 f   mfc90d:mfc90d.dll
 0002:0002de58       ?WinHelpInternal@CWinApp@@UAEXKI@Z 1004ce58 f   mfc90d:mfc90d.dll
 0002:0002de5e       ?LoadAppLangResourceDLL@CWinApp@@UAEPAUHINSTANCE__@@XZ 1004ce5e f   mfc90d:mfc90d.dll
 0002:0002de64       ?LoadSysPolicies@CWinApp@@UAEHXZ 1004ce64 f   mfc90d:mfc90d.dll
 0002:0002de6a       ??3CObject@@SGXPAX@Z       1004ce6a f   mfc90d:mfc90d.dll
 0002:0002de70       ??1CWinApp@@UAE@XZ         1004ce70 f   mfc90d:mfc90d.dll
 0002:0002de76       ?InitInstance@CWinApp@@UAEHXZ 1004ce76 f   mfc90d:mfc90d.dll
 0002:0002de7c       ?AllocSysString@?$CStringT@DV?$StrTraitMFC_DLL@DV?$ChTraitsCRT@D@ATL@@@@@ATL@@QBEPA_WXZ 1004ce7c f   mfc90d:mfc90d.dll
 0002:0002de82       ??0?$CStringT@DV?$StrTraitMFC_DLL@DV?$ChTraitsCRT@D@ATL@@@@@ATL@@QAE@PB_W@Z 1004ce82 f   mfc90d:mfc90d.dll
 0002:0002de88       ?Concatenate@?$CSimpleStringT@D$00@ATL@@KAXAAV12@PBDH1H@Z 1004ce88 f   mfc90d:mfc90d.dll
 0002:0002de8e       ??0?$CStringT@DV?$StrTraitMFC_DLL@DV?$ChTraitsCRT@D@ATL@@@@@ATL@@QAE@PAUIAtlStringMgr@1@@Z 1004ce8e f   mfc90d:mfc90d.dll
 0002:0002de94       ?GetManager@?$CStringT@DV?$StrTraitMFC_DLL@DV?$ChTraitsCRT@D@ATL@@@@@ATL@@QBEPAUIAtlStringMgr@2@XZ 1004ce94 f   mfc90d:mfc90d.dll
 0002:0002de9a       ?Mid@?$CStringT@DV?$StrTraitMFC_DLL@DV?$ChTraitsCRT@D@ATL@@@@@ATL@@QBE?AV12@HH@Z 1004ce9a f   mfc90d:mfc90d.dll
 0002:0002dea0       ??_V@YAXPAX@Z              1004cea0 f   mfc90d:mfc90d.dll
 0002:0002dea6       ?Left@?$CStringT@DV?$StrTraitMFC_DLL@DV?$ChTraitsCRT@D@ATL@@@@@ATL@@QBE?AV12@H@Z 1004cea6 f   mfc90d:mfc90d.dll
 0002:0002deac       ?Find@?$CStringT@DV?$StrTraitMFC_DLL@DV?$ChTraitsCRT@D@ATL@@@@@ATL@@QBEHDH@Z 1004ceac f   mfc90d:mfc90d.dll
 0002:0002deb2       ??_U@YAPAXIPBDH@Z          1004ceb2 f   mfc90d:mfc90d.dll
 0002:0002deb8       ?Right@?$CStringT@DV?$StrTraitMFC_DLL@DV?$ChTraitsCRT@D@ATL@@@@@ATL@@QBE?AV12@H@Z 1004ceb8 f   mfc90d:mfc90d.dll
 0002:0002debe       ?StringLength@?$CSimpleStringT@D$00@ATL@@SAHPBD@Z 1004cebe f   mfc90d:mfc90d.dll
 0002:0002dec4       ??0CObject@@IAE@XZ         1004cec4 f   mfc90d:mfc90d.dll
 0002:0002deca       ?GetRuntimeClass@CObject@@UBEPAUCRuntimeClass@@XZ 1004ceca f   mfc90d:mfc90d.dll
 0002:0002ded0       ??1CObject@@UAE@XZ         1004ced0 f   mfc90d:mfc90d.dll
 0002:0002ded6       ?AfxAssertValidObject@@YGXPBVCObject@@PBDH@Z 1004ced6 f   mfc90d:mfc90d.dll
 0002:0002dedc       ?ReadCount@CArchive@@QAEKXZ 1004cedc f   mfc90d:mfc90d.dll
 0002:0002dee2       ?WriteCount@CArchive@@QAEXK@Z 1004cee2 f   mfc90d:mfc90d.dll
 0002:0002dee8       ?IsStoring@CArchive@@QBEHXZ 1004cee8 f   mfc90d:mfc90d.dll
 0002:0002deee       ?GetDepth@CDumpContext@@QBEHXZ 1004ceee f   mfc90d:mfc90d.dll
 0002:0002def4       ??6CDumpContext@@QAEAAV0@H@Z 1004cef4 f   mfc90d:mfc90d.dll
 0002:0002defa       ??6CDumpContext@@QAEAAV0@PBD@Z 1004cefa f   mfc90d:mfc90d.dll
 0002:0002df00       ?Dump@CObject@@UBEXAAVCDumpContext@@@Z 1004cf00 f   mfc90d:mfc90d.dll
 0002:0002df06       ?AfxIsValidAddress@@YGHPBXIH@Z 1004cf06 f   mfc90d:mfc90d.dll
 0002:0002df0c       ?AssertValid@CObject@@UBEXXZ 1004cf0c f   mfc90d:mfc90d.dll
 0002:0002df12       ??_U@YAPAXI@Z              1004cf12 f   mfc90d:mfc90d.dll
 0002:0002df18       ?EnsureRead@CArchive@@QAEXPAXI@Z 1004cf18 f   mfc90d:mfc90d.dll
 0002:0002df1e       ?Write@CArchive@@QAEXPBXI@Z 1004cf1e f   mfc90d:mfc90d.dll
 0002:0002df24       ?GetThisMessageMap@CDialog@@KGPBUAFX_MSGMAP@@XZ 1004cf24 f   mfc90d:mfc90d.dll
 0002:0002df2a       ?GetThisClass@CDialog@@SGPAUCRuntimeClass@@XZ 1004cf2a f   mfc90d:mfc90d.dll
 0002:0002df30       ??1CFont@@UAE@XZ           1004cf30 f   mfc90d:mfc90d.dll
 0002:0002df36       ??1CDialog@@UAE@XZ         1004cf36 f   mfc90d:mfc90d.dll
 0002:0002df3c       ?CreateFontA@CFont@@QAEHHHHHHEEEEEEEEPBD@Z 1004cf3c f   mfc90d:mfc90d.dll
 0002:0002df42       ??0CFont@@QAE@XZ           1004cf42 f   mfc90d:mfc90d.dll
 0002:0002df48       ??0CDialog@@QAE@IPAVCWnd@@@Z 1004cf48 f   mfc90d:mfc90d.dll
 0002:0002df4e       ?AssertValid@CDialog@@UBEXXZ 1004cf4e f   mfc90d:mfc90d.dll
 0002:0002df54       ?Dump@CDialog@@UBEXAAVCDumpContext@@@Z 1004cf54 f   mfc90d:mfc90d.dll
 0002:0002df5a       ?OnCmdMsg@CDialog@@UAEHIHPAXPAUAFX_CMDHANDLERINFO@@@Z 1004cf5a f   mfc90d:mfc90d.dll
 0002:0002df60       ?OnFinalRelease@CWnd@@UAEXXZ 1004cf60 f   mfc90d:mfc90d.dll
 0002:0002df66       ?GetInterfaceMap@CWnd@@MBEPBUAFX_INTERFACEMAP@@XZ 1004cf66 f   mfc90d:mfc90d.dll
 0002:0002df6c       ?PreSubclassWindow@CWnd@@UAEXXZ 1004cf6c f   mfc90d:mfc90d.dll
 0002:0002df72       ?Create@CWnd@@UAEHPBD0KABUtagRECT@@PAV1@IPAUCCreateContext@@@Z 1004cf72 f   mfc90d:mfc90d.dll
 0002:0002df78       ?CreateEx@CWnd@@UAEHKPBD0KABUtagRECT@@PAV1@IPAX@Z 1004cf78 f   mfc90d:mfc90d.dll
 0002:0002df7e       ?CreateEx@CWnd@@UAEHKPBD0KHHHHPAUHWND__@@PAUHMENU__@@PAX@Z 1004cf7e f   mfc90d:mfc90d.dll
 0002:0002df84       ?DestroyWindow@CWnd@@UAEHXZ 1004cf84 f   mfc90d:mfc90d.dll
 0002:0002df8a       ?PreCreateWindow@CWnd@@UAEHAAUtagCREATESTRUCTA@@@Z 1004cf8a f   mfc90d:mfc90d.dll
 0002:0002df90       ?CalcWindowRect@CWnd@@UAEXPAUtagRECT@@I@Z 1004cf90 f   mfc90d:mfc90d.dll
 0002:0002df96       ?GetMenu@CWnd@@UBEPAVCMenu@@XZ 1004cf96 f   mfc90d:mfc90d.dll
 0002:0002df9c       ?SetMenu@CWnd@@UAEHPAVCMenu@@@Z 1004cf9c f   mfc90d:mfc90d.dll
 0002:0002dfa2       ?OnToolHitTest@CWnd@@UBEHVCPoint@@PAUtagTOOLINFOA@@@Z 1004cfa2 f   mfc90d:mfc90d.dll
 0002:0002dfa8       ?GetScrollBarCtrl@CWnd@@UBEPAVCScrollBar@@H@Z 1004cfa8 f   mfc90d:mfc90d.dll
 0002:0002dfae       ?WinHelpA@CWnd@@UAEXKI@Z   1004cfae f   mfc90d:mfc90d.dll
 0002:0002dfb4       ?HtmlHelpA@CWnd@@UAEXKI@Z  1004cfb4 f   mfc90d:mfc90d.dll
 0002:0002dfba       ?WinHelpInternal@CWnd@@UAEXKI@Z 1004cfba f   mfc90d:mfc90d.dll
 0002:0002dfc0       ?ContinueModal@CWnd@@UAEHXZ 1004cfc0 f   mfc90d:mfc90d.dll
 0002:0002dfc6       ?EndModalLoop@CWnd@@UAEXH@Z 1004cfc6 f   mfc90d:mfc90d.dll
 0002:0002dfcc       ?EnsureStdObj@CWnd@@UAEJXZ 1004cfcc f   mfc90d:mfc90d.dll
 0002:0002dfd2       ?get_accParent@CWnd@@UAEJPAPAUIDispatch@@@Z 1004cfd2 f   mfc90d:mfc90d.dll
 0002:0002dfd8       ?get_accChildCount@CWnd@@UAEJPAJ@Z 1004cfd8 f   mfc90d:mfc90d.dll
 0002:0002dfde       ?get_accChild@CWnd@@UAEJUtagVARIANT@@PAPAUIDispatch@@@Z 1004cfde f   mfc90d:mfc90d.dll
 0002:0002dfe4       ?get_accName@CWnd@@UAEJUtagVARIANT@@PAPA_W@Z 1004cfe4 f   mfc90d:mfc90d.dll
 0002:0002dfea       ?get_accValue@CWnd@@UAEJUtagVARIANT@@PAPA_W@Z 1004cfea f   mfc90d:mfc90d.dll
 0002:0002dff0       ?get_accDescription@CWnd@@UAEJUtagVARIANT@@PAPA_W@Z 1004cff0 f   mfc90d:mfc90d.dll
 0002:0002dff6       ?get_accRole@CWnd@@UAEJUtagVARIANT@@PAU2@@Z 1004cff6 f   mfc90d:mfc90d.dll
 0002:0002dffc       ?get_accState@CWnd@@UAEJUtagVARIANT@@PAU2@@Z 1004cffc f   mfc90d:mfc90d.dll
 0002:0002e002       ?get_accHelp@CWnd@@UAEJUtagVARIANT@@PAPA_W@Z 1004d002 f   mfc90d:mfc90d.dll
 0002:0002e008       ?get_accHelpTopic@CWnd@@UAEJPAPA_WUtagVARIANT@@PAJ@Z 1004d008 f   mfc90d:mfc90d.dll
 0002:0002e00e       ?get_accKeyboardShortcut@CWnd@@UAEJUtagVARIANT@@PAPA_W@Z 1004d00e f   mfc90d:mfc90d.dll
 0002:0002e014       ?get_accFocus@CWnd@@UAEJPAUtagVARIANT@@@Z 1004d014 f   mfc90d:mfc90d.dll
 0002:0002e01a       ?get_accSelection@CWnd@@UAEJPAUtagVARIANT@@@Z 1004d01a f   mfc90d:mfc90d.dll
 0002:0002e020       ?get_accDefaultAction@CWnd@@UAEJUtagVARIANT@@PAPA_W@Z 1004d020 f   mfc90d:mfc90d.dll
 0002:0002e026       ?accSelect@CWnd@@UAEJJUtagVARIANT@@@Z 1004d026 f   mfc90d:mfc90d.dll
 0002:0002e02c       ?accLocation@CWnd@@UAEJPAJ000UtagVARIANT@@@Z 1004d02c f   mfc90d:mfc90d.dll
 0002:0002e032       ?accNavigate@CWnd@@UAEJJUtagVARIANT@@PAU2@@Z 1004d032 f   mfc90d:mfc90d.dll
 0002:0002e038       ?accHitTest@CWnd@@UAEJJJPAUtagVARIANT@@@Z 1004d038 f   mfc90d:mfc90d.dll
 0002:0002e03e       ?accDoDefaultAction@CWnd@@UAEJUtagVARIANT@@@Z 1004d03e f   mfc90d:mfc90d.dll
 0002:0002e044       ?put_accName@CWnd@@UAEJUtagVARIANT@@PA_W@Z 1004d044 f   mfc90d:mfc90d.dll
 0002:0002e04a       ?put_accValue@CWnd@@UAEJUtagVARIANT@@PA_W@Z 1004d04a f   mfc90d:mfc90d.dll
 0002:0002e050       ?SetProxy@CWnd@@UAEJPAUIAccessibleProxy@@@Z 1004d050 f   mfc90d:mfc90d.dll
 0002:0002e056       ?CreateAccessibleProxy@CWnd@@UAEJIJPAJ@Z 1004d056 f   mfc90d:mfc90d.dll
 0002:0002e05c       ?OnCommand@CWnd@@MAEHIJ@Z  1004d05c f   mfc90d:mfc90d.dll
 0002:0002e062       ?OnNotify@CWnd@@MAEHIJPAJ@Z 1004d062 f   mfc90d:mfc90d.dll
 0002:0002e068       ?GetSuperWndProcAddr@CWnd@@MAEPAP6GJPAUHWND__@@IIJ@ZXZ 1004d068 f   mfc90d:mfc90d.dll
 0002:0002e06e       ?BeginModalState@CWnd@@UAEXXZ 1004d06e f   mfc90d:mfc90d.dll
 0002:0002e074       ?EndModalState@CWnd@@UAEXXZ 1004d074 f   mfc90d:mfc90d.dll
 0002:0002e07a       ?PreTranslateMessage@CDialog@@UAEHPAUtagMSG@@@Z 1004d07a f   mfc90d:mfc90d.dll
 0002:0002e080       ?OnAmbientProperty@CWnd@@UAEHPAVCOleControlSite@@JPAUtagVARIANT@@@Z 1004d080 f   mfc90d:mfc90d.dll
 0002:0002e086       ?WindowProc@CWnd@@MAEJIIJ@Z 1004d086 f   mfc90d:mfc90d.dll
 0002:0002e08c       ?OnWndMsg@CWnd@@MAEHIIJPAJ@Z 1004d08c f   mfc90d:mfc90d.dll
 0002:0002e092       ?DefWindowProcA@CWnd@@MAEJIIJ@Z 1004d092 f   mfc90d:mfc90d.dll
 0002:0002e098       ?PostNcDestroy@CWnd@@MAEXXZ 1004d098 f   mfc90d:mfc90d.dll
 0002:0002e09e       ?OnChildNotify@CWnd@@MAEHIIJPAJ@Z 1004d09e f   mfc90d:mfc90d.dll
 0002:0002e0a4       ?CheckAutoCenter@CDialog@@UAEHXZ 1004d0a4 f   mfc90d:mfc90d.dll
 0002:0002e0aa       ?IsFrameWnd@CWnd@@UBEHXZ   1004d0aa f   mfc90d:mfc90d.dll
 0002:0002e0b0       ?CreateControlContainer@CWnd@@MAEHPAPAVCOleControlContainer@@@Z 1004d0b0 f   mfc90d:mfc90d.dll
 0002:0002e0b6       ?CreateControlSite@CWnd@@MAEHPAVCOleControlContainer@@PAPAVCOleControlSite@@IABU_GUID@@@Z 1004d0b6 f   mfc90d:mfc90d.dll
 0002:0002e0bc       ?SetOccDialogInfo@CDialog@@MAEHPAU_AFX_OCC_DIALOG_INFO@@@Z 1004d0bc f   mfc90d:mfc90d.dll
 0002:0002e0c2       ?GetOccDialogInfo@CDialog@@MAEPAU_AFX_OCC_DIALOG_INFO@@XZ 1004d0c2 f   mfc90d:mfc90d.dll
 0002:0002e0c8       ?Create@CDialog@@UAEHIPAVCWnd@@@Z 1004d0c8 f   mfc90d:mfc90d.dll
 0002:0002e0ce       ?Create@CDialog@@UAEHPBDPAVCWnd@@@Z 1004d0ce f   mfc90d:mfc90d.dll
 0002:0002e0d4       ?CreateIndirect@CDialog@@UAEHPAXPAVCWnd@@@Z 1004d0d4 f   mfc90d:mfc90d.dll
 0002:0002e0da       ?CreateIndirect@CDialog@@UAEHPBUDLGTEMPLATE@@PAVCWnd@@PAX@Z 1004d0da f   mfc90d:mfc90d.dll
 0002:0002e0e0       ?OnSetFont@CDialog@@UAEXPAVCFont@@@Z 1004d0e0 f   mfc90d:mfc90d.dll
 0002:0002e0e6       ?OnOK@CDialog@@MAEXXZ      1004d0e6 f   mfc90d:mfc90d.dll
 0002:0002e0ec       ?OnCancel@CDialog@@MAEXXZ  1004d0ec f   mfc90d:mfc90d.dll
 0002:0002e0f2       ?PreInitDialog@CDialog@@MAEXXZ 1004d0f2 f   mfc90d:mfc90d.dll
 0002:0002e0f8       ?DeleteObject@CGdiObject@@QAEHXZ 1004d0f8 f   mfc90d:mfc90d.dll
 0002:0002e0fe       ?DDX_Text@@YGXPAVCDataExchange@@HAAV?$CStringT@DV?$StrTraitMFC_DLL@DV?$ChTraitsCRT@D@ATL@@@@@ATL@@@Z 1004d0fe f   mfc90d:mfc90d.dll
 0002:0002e104       ?DoDataExchange@CWnd@@MAEXPAVCDataExchange@@@Z 1004d104 f   mfc90d:mfc90d.dll
 0002:0002e10a       ?EndDialog@CDialog@@QAEXH@Z 1004d10a f   mfc90d:mfc90d.dll
 0002:0002e110       ?UpdateData@CWnd@@QAEHH@Z  1004d110 f   mfc90d:mfc90d.dll
 0002:0002e116       ??1CPaintDC@@UAE@XZ        1004d116 f   mfc90d:mfc90d.dll
 0002:0002e11c       ?GetSafeHdc@CDC@@QBEPAUHDC__@@XZ 1004d11c f   mfc90d:mfc90d.dll
 0002:0002e122       ?DrawTextA@CDC@@QAEHABV?$CStringT@DV?$StrTraitMFC_DLL@DV?$ChTraitsCRT@D@ATL@@@@@ATL@@PAUtagRECT@@I@Z 1004d122 f   mfc90d:mfc90d.dll
 0002:0002e128       ?SetBkMode@CDC@@QAEHH@Z    1004d128 f   mfc90d:mfc90d.dll
 0002:0002e12e       ?SetTextColor@CDC@@UAEKK@Z 1004d12e f   mfc90d:mfc90d.dll
 0002:0002e134       ?FillSolidRect@CDC@@QAEXPBUtagRECT@@K@Z 1004d134 f   mfc90d:mfc90d.dll
 0002:0002e13a       ?GetClientRect@CWnd@@QBEXPAUtagRECT@@@Z 1004d13a f   mfc90d:mfc90d.dll
 0002:0002e140       ?ScreenToClient@CWnd@@QBEXPAUtagRECT@@@Z 1004d140 f   mfc90d:mfc90d.dll
 0002:0002e146       ?GetWindowRect@CWnd@@QBEXPAUtagRECT@@@Z 1004d146 f   mfc90d:mfc90d.dll
 0002:0002e14c       ?GetDlgItem@CWnd@@QBEPAV1@H@Z 1004d14c f   mfc90d:mfc90d.dll
 0002:0002e152       ?SelectObject@CDC@@UAEPAVCFont@@PAV2@@Z 1004d152 f   mfc90d:mfc90d.dll
 0002:0002e158       ??0CPaintDC@@QAE@PAVCWnd@@@Z 1004d158 f   mfc90d:mfc90d.dll
 0002:0002e15e       ?SetIcon@CWnd@@QAEPAUHICON__@@PAU2@H@Z 1004d15e f   mfc90d:mfc90d.dll
 0002:0002e164       ?AfxGetResourceHandle@@YGPAUHINSTANCE__@@XZ 1004d164 f   mfc90d:mfc90d.dll
 0002:0002e16a       ?SetWindowTextA@CWnd@@QAEXPBD@Z 1004d16a f   mfc90d:mfc90d.dll
 0002:0002e170       ?IsEmpty@?$CSimpleStringT@D$00@ATL@@QBE_NXZ 1004d170 f   mfc90d:mfc90d.dll
 0002:0002e176       ?OnInitDialog@CDialog@@UAEHXZ 1004d176 f   mfc90d:mfc90d.dll
 0002:0002e17c       ?OnDestroy@CWnd@@IAEXXZ    1004d17c f   mfc90d:mfc90d.dll
 0002:0002e182       ?TrimRight@?$CStringT@DV?$StrTraitMFC_DLL@DV?$ChTraitsCRT@D@ATL@@@@@ATL@@QAEAAV12@XZ 1004d182 f   mfc90d:mfc90d.dll
 0002:0002e188       ?TrimLeft@?$CStringT@DV?$StrTraitMFC_DLL@DV?$ChTraitsCRT@D@ATL@@@@@ATL@@QAEAAV12@XZ 1004d188 f   mfc90d:mfc90d.dll
 0002:0002e18e       ??1CCriticalSection@@UAE@XZ 1004d18e f   mfc90d:mfc90d.dll
 0002:0002e194       ??0CCriticalSection@@QAE@XZ 1004d194 f   mfc90d:mfc90d.dll
 0002:0002e19a       ?Lock@CCriticalSection@@QAEHXZ 1004d19a f   mfc90d:mfc90d.dll
 0002:0002e1a0       ?FreeDataChain@CPlex@@QAEXXZ 1004d1a0 f   mfc90d:mfc90d.dll
 0002:0002e1a6       ?Create@CPlex@@SGPAU1@AAPAU1@II@Z 1004d1a6 f   mfc90d:mfc90d.dll
 0002:0002e1ac       ??1CSocket@@UAE@XZ         1004d1ac f   mfc90d:mfc90d.dll
 0002:0002e1b2       ??0CSocket@@QAE@XZ         1004d1b2 f   mfc90d:mfc90d.dll
 0002:0002e1b8       ?Connect@CAsyncSocket@@QAEHPBDI@Z 1004d1b8 f   mfc90d:mfc90d.dll
 0002:0002e1be       ?Create@CSocket@@QAEHIHPBD@Z 1004d1be f   mfc90d:mfc90d.dll
 0002:0002e1c4       ?Find@?$CStringT@DV?$StrTraitMFC_DLL@DV?$ChTraitsCRT@D@ATL@@@@@ATL@@QBEHPBDH@Z 1004d1c4 f   mfc90d:mfc90d.dll
 0002:0002e1ca       ?CancelBlockingCall@CSocket@@QAEXXZ 1004d1ca f   mfc90d:mfc90d.dll
 0002:0002e1d0       ?CompareNoCase@?$CStringT@DV?$StrTraitMFC_DLL@DV?$ChTraitsCRT@D@ATL@@@@@ATL@@QBEHPBD@Z 1004d1d0 f   mfc90d:mfc90d.dll
 0002:0002e1d6       ?SpanExcluding@?$CStringT@DV?$StrTraitMFC_DLL@DV?$ChTraitsCRT@D@ATL@@@@@ATL@@QBE?AV12@PBD@Z 1004d1d6 f   mfc90d:mfc90d.dll
 0002:0002e1dc       ?Mid@?$CStringT@DV?$StrTraitMFC_DLL@DV?$ChTraitsCRT@D@ATL@@@@@ATL@@QBE?AV12@H@Z 1004d1dc f   mfc90d:mfc90d.dll
 0002:0002e1e2       ?ReverseFind@?$CStringT@DV?$StrTraitMFC_DLL@DV?$ChTraitsCRT@D@ATL@@@@@ATL@@QBEHD@Z 1004d1e2 f   mfc90d:mfc90d.dll
 0002:0002e1e8       ??1CFileDialog@@UAE@XZ     1004d1e8 f   mfc90d:mfc90d.dll
 0002:0002e1ee       ?GetPathName@CFileDialog@@QBE?AV?$CStringT@DV?$StrTraitMFC_DLL@DV?$ChTraitsCRT@D@ATL@@@@@ATL@@XZ 1004d1ee f   mfc90d:mfc90d.dll
 0002:0002e1f4       ?DoModal@CFileDialog@@UAEHXZ 1004d1f4 f   mfc90d:mfc90d.dll
 0002:0002e1fa       ??0CFileDialog@@QAE@HPBD0K0PAVCWnd@@KH@Z 1004d1fa f   mfc90d:mfc90d.dll
 0002:0002e200       ??_Estringdispid@CComTypeInfoHolder@ATL@@QAEPAXI@Z 1004d200 f i mfcs90d:nolib.obj
 0002:0002e290       ??1stringdispid@CComTypeInfoHolder@ATL@@QAE@XZ 1004d290 f i mfcs90d:nolib.obj
 0002:0002e2b0       ??1CComBSTR@ATL@@QAE@XZ    1004d2b0 f i mfcs90d:nolib.obj
 0002:0002e2d0       ?AfxWndProcDllStatic@@YGJPAUHWND__@@IIJ@Z 1004d2d0 f   mfcs90d:dllmodul.obj
 0002:0002e370       ?AfxGetStaticModuleState@@YGPAVAFX_MODULE_STATE@@XZ 1004d370 f   mfcs90d:dllmodul.obj
 0002:0002e390       _InternalDllMain@12        1004d390 f   mfcs90d:dllmodul.obj
 0002:0002e800       ??0CTraceFileAndLineInfo@ATL@@QAE@PBDH@Z 1004d800 f i mfcs90d:dllmodul.obj
 0002:0002e830       ??RCTraceFileAndLineInfo@ATL@@QBAXKIPBDZZ 1004d830 f i mfcs90d:dllmodul.obj
 0002:0002e890       ?TraceV@CTrace@ATL@@QBAXPBDHKI0PAD@Z 1004d890 f i mfcs90d:dllmodul.obj
 0002:0002e8d0       ??BCTraceCategory@ATL@@QBEKXZ 1004d8d0 f i mfcs90d:dllmodul.obj
 0002:0002e8f0       _RawDllMain@12             1004d8f0 f   mfcs90d:dllmodul.obj
 0002:0002e9c0       _DllMain@12                1004d9c0 f   mfcs90d:dllmodul.obj
 0002:0002ea90       ??0_AFX_DLL_MODULE_STATE@@QAE@XZ 1004da90 f i mfcs90d:dllmodul.obj
 0002:0002ead0       ??_E_AFX_DLL_MODULE_STATE@@UAEPAXI@Z 1004dad0 f i mfcs90d:dllmodul.obj
 0002:0002ead0       ??_G_AFX_DLL_MODULE_STATE@@UAEPAXI@Z 1004dad0 f i mfcs90d:dllmodul.obj
 0002:0002eb10       ??1_AFX_DLL_MODULE_STATE@@UAE@XZ 1004db10 f i mfcs90d:dllmodul.obj
 0002:0002eb30       ?AfxSocketInit@@YGHPAUWSAData@@@Z 1004db30 f   mfcs90d:sockexp.obj
 0002:0002eb60       __RTC_InitBase             1004db60 f   msvcrtd:_init_.obj
 0002:0002eba0       __RTC_Shutdown             1004dba0 f   msvcrtd:_init_.obj
 0002:0002ebc0       __RTC_CheckEsp             1004dbc0 f   msvcrtd:_stack_.obj
 0002:0002ebf0       @_RTC_CheckStackVars@8     1004dbf0 f   msvcrtd:_stack_.obj
 0002:0002ec70       @_RTC_AllocaHelper@12      1004dc70 f   msvcrtd:_stack_.obj
 0002:0002ecb0       @_RTC_CheckStackVars2@12   1004dcb0 f   msvcrtd:_stack_.obj
 0002:0002edc0       ??0type_info@@AAE@ABV0@@Z  1004ddc0 f   msvcrtd:ti_inst.obj
 0002:0002edf0       ??_Etype_info@@UAEPAXI@Z   1004ddf0 f i msvcrtd:ti_inst.obj
 0002:0002ee80       ??4type_info@@AAEAAV0@ABV0@@Z 1004de80 f   msvcrtd:ti_inst.obj
 0002:0002ee96       ___CxxFrameHandler3        1004de96 f   msvcrtd:MSVCR90D.dll
 0002:0002eea0       @__security_check_cookie@4 1004dea0 f   msvcrtd:secchk.obj
 0002:0002eeb2       __splitpath                1004deb2 f   msvcrtd:MSVCR90D.dll
 0002:0002eeb8       _memset                    1004deb8 f   msvcrtd:MSVCR90D.dll
 0002:0002eec0       __onexit                   1004dec0 f   msvcrtd:atonexit.obj
 0002:0002f010       _atexit                    1004e010 f   msvcrtd:atonexit.obj
 0002:0002f040       __allmul                   1004e040 f   msvcrtd:llmul.obj
 0002:0002f082       __getpid                   1004e082 f   msvcrtd:MSVCR90D.dll
 0002:0002f088       __CrtDbgReportW            1004e088 f   msvcrtd:MSVCR90D.dll
 0002:0002f090       __chkstk                   1004e090 f   msvcrtd:chkstk.obj
 0002:0002f090       __alloca_probe             1004e090     msvcrtd:chkstk.obj
 0002:0002f0d0       __except_handler4          1004e0d0 f   msvcrtd:chandler4gs.obj
 0002:0002f104       __recalloc                 1004e104 f   msvcrtd:MSVCR90D.dll
 0002:0002f10a       _memmove_s                 1004e10a f   msvcrtd:MSVCR90D.dll
 0002:0002f110       __invalid_parameter        1004e110 f   msvcrtd:MSVCR90D.dll
 0002:0002f116       __CxxThrowException@8      1004e116 f   msvcrtd:MSVCR90D.dll
 0002:0002f11c       ??0exception@std@@QAE@ABV01@@Z 1004e11c f   msvcrtd:MSVCR90D.dll
 0002:0002f122       ??1exception@std@@UAE@XZ   1004e122 f   msvcrtd:MSVCR90D.dll
 0002:0002f128       ??0exception@std@@QAE@XZ   1004e128 f   msvcrtd:MSVCR90D.dll
 0002:0002f12e       _memcpy                    1004e12e f   msvcrtd:MSVCR90D.dll
 0002:0002f134       ??0exception@std@@QAE@ABQBD@Z 1004e134 f   msvcrtd:MSVCR90D.dll
 0002:0002f13a       ?what@exception@std@@UBEPBDXZ 1004e13a f   msvcrtd:MSVCR90D.dll
 0002:0002f140       _free                      1004e140 f   msvcrtd:MSVCR90D.dll
 0002:0002f146       _getenv                    1004e146 f   msvcrtd:MSVCR90D.dll
 0002:0002f14c       __wcsdup                   1004e14c f   msvcrtd:MSVCR90D.dll
 0002:0002f152       _sprintf                   1004e152 f   msvcrtd:MSVCR90D.dll
 0002:0002f158       _strcpy                    1004e158 f   msvcrtd:MSVCR90D.dll
 0002:0002f15e       _strlen                    1004e15e f   msvcrtd:MSVCR90D.dll
 0002:0002f164       __mbsnbcpy                 1004e164 f   msvcrtd:MSVCR90D.dll
 0002:0002f16a       __mbsnbcmp                 1004e16a f   msvcrtd:MSVCR90D.dll
 0002:0002f170       _atol                      1004e170 f   msvcrtd:MSVCR90D.dll
 0002:0002f176       __mbscmp                   1004e176 f   msvcrtd:MSVCR90D.dll
 0002:0002f17c       _strftime                  1004e17c f   msvcrtd:MSVCR90D.dll
 0002:0002f182       __localtime64_s            1004e182 f   msvcrtd:MSVCR90D.dll
 0002:0002f188       _memcpy_s                  1004e188 f   msvcrtd:MSVCR90D.dll
 0002:0002f18e       __purecall                 1004e18e f   msvcrtd:MSVCR90D.dll
 0002:0002f1a0       ??_M@YGXPAXIHP6EX0@Z@Z     1004e1a0 f   msvcrtd:ehvecdtr.obj
 0002:0002f280       ?__ArrayUnwind@@YGXPAXIHP6EX0@Z@Z 1004e280 f   msvcrtd:ehvecdtr.obj
 0002:0002f370       ??_L@YGXPAXIHP6EX0@Z1@Z    1004e370 f   msvcrtd:ehvecctr.obj
 0002:0002f44c       _sscanf                    1004e44c f   msvcrtd:MSVCR90D.dll
 0002:0002f500       __CRT_INIT@12              1004e500 f   msvcrtd:crtdll.obj
 0002:0002f8d0       _NtCurrentTeb              1004e8d0 f i msvcrtd:crtdll.obj
 0002:0002f8e0       __DllMainCRTStartup@12     1004e8e0 f   msvcrtd:crtdll.obj
 0002:0002fb60       __RTC_NumErrors            1004eb60 f   msvcrtd:_userapi_.obj
 0002:0002fb70       __RTC_GetErrDesc           1004eb70 f   msvcrtd:_userapi_.obj
 0002:0002fb90       __RTC_SetErrorType         1004eb90 f   msvcrtd:_userapi_.obj
 0002:0002fbc0       __RTC_SetErrorFunc         1004ebc0 f   msvcrtd:_userapi_.obj
 0002:0002fbf0       __RTC_SetErrorFuncW        1004ebf0 f   msvcrtd:_userapi_.obj
 0002:0002fc20       ?_RTC_GetErrorFunc@@YAP6AHHPBDH00ZZPBX@Z 1004ec20 f   msvcrtd:_userapi_.obj
 0002:0002fc30       ?_RTC_GetErrorFuncW@@YAP6AHHPB_WH00ZZPBX@Z 1004ec30 f   msvcrtd:_userapi_.obj
 0002:0002fc36       __CRT_RTC_INITW            1004ec36 f   msvcrtd:MSVCR90D.dll
 0002:0002fc40       _DebuggerKnownHandle       1004ec40 f   msvcrtd:_error_.obj
 0002:0002fd20       ?_RTC_Failure@@YAXPAXH@Z   1004ed20 f   msvcrtd:_error_.obj
 0002:000300f0       ?_RTC_StackFailure@@YAXPAXPBD@Z 1004f0f0 f   msvcrtd:_error_.obj
 0002:00030230       ?_RTC_AllocaFailure@@YAXPAXPAU_RTC_ALLOCA_NODE@@H@Z 1004f230 f   msvcrtd:_error_.obj
 0002:00030440       __RTC_UninitUse            1004f440 f   msvcrtd:_error_.obj
 0002:00030570       ___report_gsfailure        1004f570 f   msvcrtd:gs_report.obj
 0002:000306c2       __unlock                   1004f6c2 f   msvcrtd:MSVCR90D.dll
 0002:000306c8       ___dllonexit               1004f6c8 f   msvcrtd:MSVCR90D.dll
 0002:000306ce       __encode_pointer           1004f6ce f   msvcrtd:MSVCR90D.dll
 0002:000306d4       __lock                     1004f6d4 f   msvcrtd:MSVCR90D.dll
 0002:000306da       __decode_pointer           1004f6da f   msvcrtd:MSVCR90D.dll
 0002:000306e0       __except_handler4_common   1004f6e0 f   msvcrtd:MSVCR90D.dll
 0002:000306e6       ?terminate@@YAXXZ          1004f6e6 f   msvcrtd:MSVCR90D.dll
 0002:000306f0       ___clean_type_info_names   1004f6f0 f   msvcrtd:tncleanup.obj
 0002:00030710       __RTC_Initialize           1004f710 f   msvcrtd:_initsect_.obj
 0002:00030740       __RTC_Terminate            1004f740 f   msvcrtd:_initsect_.obj
 0002:00030770       __malloc_dbg               1004f770 f   msvcrtd:MSVCR90D.dll
 0002:00030776       __free_dbg                 1004f776 f   msvcrtd:MSVCR90D.dll
 0002:0003077c       __encoded_null             1004f77c f   msvcrtd:MSVCR90D.dll
 0002:00030782       __CrtSetCheckCount         1004f782 f   msvcrtd:MSVCR90D.dll
 0002:00030790       __ValidateImageBase        1004f790 f   msvcrtd:pesect.obj
 0002:00030810       __FindPESection            1004f810 f   msvcrtd:pesect.obj
 0002:000308b0       __IsNonwritableInCurrentImage 1004f8b0 f   msvcrtd:pesect.obj
 0002:00030a06       __initterm                 1004fa06 f   msvcrtd:MSVCR90D.dll
 0002:00030a0c       __initterm_e               1004fa0c f   msvcrtd:MSVCR90D.dll
 0002:00030a12       __amsg_exit                1004fa12 f   msvcrtd:MSVCR90D.dll
 0002:00030a20       ___security_init_cookie    1004fa20 f   msvcrtd:gs_support.obj
 0002:00030b32       ___CppXcptFilter           1004fb32 f   msvcrtd:MSVCR90D.dll
 0002:00030b40       ?_RTC_GetSrcLine@@YAHPAEPA_WKPAH1K@Z 1004fb40 f   msvcrtd:_pdblkup_.obj
 0002:000310fc       ?_type_info_dtor_internal_method@type_info@@QAEXXZ 100500fc f   msvcrtd:MSVCR90D.dll
 0002:000310fc       ??1type_info@@UAE@XZ       100500fc f   msvcrtd:MSVCR90D.dll
 0002:00031102       __crt_debugger_hook        10050102 f   msvcrtd:MSVCR90D.dll
 0002:00031108       ___clean_type_info_names_internal 10050108 f   msvcrtd:MSVCR90D.dll
 0002:0003110e       _FileTimeToSystemTime@8    1005010e f   kernel32:KERNEL32.dll
 0002:00031114       _FileTimeToLocalFileTime@8 10050114 f   kernel32:KERNEL32.dll
 0002:0003111a       _SetUnhandledExceptionFilter@4 1005011a f   kernel32:KERNEL32.dll
 0002:00031120       _CloseHandle@4             10050120 f   kernel32:KERNEL32.dll
 0002:00031126       _CreateFileA@28            10050126 f   kernel32:KERNEL32.dll
 0002:0003112c       _GetPrivateProfileStringA@24 1005012c f   kernel32:KERNEL32.dll
 0002:00031132       _GetTempPathA@8            10050132 f   kernel32:KERNEL32.dll
 0002:00031138       _GetLocalTime@4            10050138 f   kernel32:KERNEL32.dll
 0002:0003113e       _lstrcpynA@12              1005013e f   kernel32:KERNEL32.dll
 0002:00031144       _GetVersionExA@4           10050144 f   kernel32:KERNEL32.dll
 0002:0003114a       _TerminateProcess@8        1005014a f   kernel32:KERNEL32.dll
 0002:00031150       _OpenProcess@12            10050150 f   kernel32:KERNEL32.dll
 0002:00031156       _GetCurrentProcessId@0     10050156 f   kernel32:KERNEL32.dll
 0002:0003115c       _CopyFileA@12              1005015c f   kernel32:KERNEL32.dll
 0002:00031162       _RaiseException@16         10050162 f   kernel32:KERNEL32.dll
 0002:00031168       _OutputDebugStringA@4      10050168 f   kernel32:KERNEL32.dll
 0002:0003116e       _DebugBreak@0              1005016e f   kernel32:KERNEL32.dll
 0002:00031174       _GetCurrentProcess@0       10050174 f   kernel32:KERNEL32.dll
 0002:0003117a       _GetCurrentThreadId@0      1005017a f   kernel32:KERNEL32.dll
 0002:00031180       _WriteFile@20              10050180 f   kernel32:KERNEL32.dll
 0002:00031186       _GetModuleFileNameA@12     10050186 f   kernel32:KERNEL32.dll
 0002:0003118c       _MultiByteToWideChar@24    1005018c f   kernel32:KERNEL32.dll
 0002:00031192       _GetSystemInfo@4           10050192 f   kernel32:KERNEL32.dll
 0002:00031198       _GetFileSize@8             10050198 f   kernel32:KERNEL32.dll
 0002:0003119e       _CreateFileW@28            1005019e f   kernel32:KERNEL32.dll
 0002:000311a4       _GetLastError@0            100501a4 f   kernel32:KERNEL32.dll
 0002:000311aa       _LocalFree@4               100501aa f   kernel32:KERNEL32.dll
 0002:000311b0       _LocalAlloc@8              100501b0 f   kernel32:KERNEL32.dll
 0002:000311b6       _ReadFile@20               100501b6 f   kernel32:KERNEL32.dll
 0002:000311bc       _FindClose@4               100501bc f   kernel32:KERNEL32.dll
 0002:000311c2       _FindFirstFileA@8          100501c2 f   kernel32:KERNEL32.dll
 0002:000311c8       _GetTempFileNameA@16       100501c8 f   kernel32:KERNEL32.dll
 0002:000311ce       _DeleteFileA@4             100501ce f   kernel32:KERNEL32.dll
 0002:000311d4       _SetCurrentDirectoryA@4    100501d4 f   kernel32:KERNEL32.dll
 0002:000311da       _GetLongPathNameA@12       100501da f   kernel32:KERNEL32.dll
 0002:000311e0       _FileTimeToDosDateTime@12  100501e0 f   kernel32:KERNEL32.dll
 0002:000311e6       _InterlockedExchange@8     100501e6 f   kernel32:KERNEL32.dll
 0002:000311ec       _Sleep@4                   100501ec f   kernel32:KERNEL32.dll
 0002:000311f2       _InterlockedCompareExchange@12 100501f2 f   kernel32:KERNEL32.dll
 0002:000311f8       _IsDebuggerPresent@0       100501f8 f   kernel32:KERNEL32.dll
 0002:000311fe       _WideCharToMultiByte@32    100501fe f   kernel32:KERNEL32.dll
 0002:00031204       _lstrlenA@4                10050204 f   kernel32:KERNEL32.dll
 0002:0003120a       _GetProcAddress@8          1005020a f   kernel32:KERNEL32.dll
 0002:00031210       _LoadLibraryA@4            10050210 f   kernel32:KERNEL32.dll
 0002:00031216       _UnhandledExceptionFilter@4 10050216 f   kernel32:KERNEL32.dll
 0002:0003121c       _QueryPerformanceCounter@4 1005021c f   kernel32:KERNEL32.dll
 0002:00031222       _GetTickCount@0            10050222 f   kernel32:KERNEL32.dll
 0002:00031228       _GetSystemTimeAsFileTime@4 10050228 f   kernel32:KERNEL32.dll
 0002:0003122e       _HeapFree@12               1005022e f   kernel32:KERNEL32.dll
 0002:00031234       _HeapAlloc@12              10050234 f   kernel32:KERNEL32.dll
 0002:0003123a       _GetProcessHeap@0          1005023a f   kernel32:KERNEL32.dll
 0002:00031240       _GetModuleFileNameW@12     10050240 f   kernel32:KERNEL32.dll
 0002:00031246       _VirtualQuery@12           10050246 f   kernel32:KERNEL32.dll
 0002:0003124c       _FreeLibrary@4             1005024c f   kernel32:KERNEL32.dll
 0002:00031252       _DefWindowProcA@16         10050252 f   user32:USER32.dll
 0002:00031258       _PostMessageA@16           10050258 f   user32:USER32.dll
 0002:0003125e       _DrawIconEx@36             1005025e f   user32:USER32.dll
 0002:00031264       _LoadImageA@24             10050264 f   user32:USER32.dll
 0002:0003126a       _DeleteObject@4            1005026a f   gdi32:GDI32.dll
 0002:00031270       _RegCloseKey@4             10050270 f   advapi32:ADVAPI32.dll
 0002:00031276       _RegOpenKeyExA@20          10050276 f   advapi32:ADVAPI32.dll
 0002:0003127c       _RegQueryValueExA@24       1005027c f   advapi32:ADVAPI32.dll
 0002:00031282       _CoInitialize@4            10050282 f   ole32:ole32.dll
 0002:00031288       _CoUninitialize@0          10050288 f   ole32:ole32.dll
 0002:0003128e       _CoCreateInstance@20       1005028e f   ole32:ole32.dll
 0002:00031294       _SysFreeString@4           10050294 f   oleaut32:OLEAUT32.dll
 0002:0003129a       _SysAllocString@4          1005029a f   oleaut32:OLEAUT32.dll
 0002:000312a0       _SysAllocStringLen@8       100502a0 f   oleaut32:OLEAUT32.dll
 0002:000312a6       ??_D?$basic_stringstream@DU?$char_traits@D@std@@V?$allocator@D@2@@std@@QAEXXZ 100502a6 f   msvcprtd:MSVCP90D.dll
 0002:000312ac       ??1?$basic_string@DU?$char_traits@D@std@@V?$allocator@D@2@@std@@QAE@XZ 100502ac f   msvcprtd:MSVCP90D.dll
 0002:000312b2       ??4?$basic_string@DU?$char_traits@D@std@@V?$allocator@D@2@@std@@QAEAAV01@ABV01@@Z 100502b2 f   msvcprtd:MSVCP90D.dll
 0002:000312b8       ?str@?$basic_stringstream@DU?$char_traits@D@std@@V?$allocator@D@2@@std@@QBE?AV?$basic_string@DU?$char_traits@D@std@@V?$allocator@D@2@@2@XZ 100502b8 f   msvcprtd:MSVCP90D.dll
 0002:000312be       ??6?$basic_ostream@DU?$char_traits@D@std@@@std@@QAEAAV01@H@Z 100502be f   msvcprtd:MSVCP90D.dll
 0002:000312c4       ??6?$basic_ostream@DU?$char_traits@D@std@@@std@@QAEAAV01@P6AAAVios_base@1@AAV21@@Z@Z 100502c4 f   msvcprtd:MSVCP90D.dll
 0002:000312ca       ??0?$basic_stringstream@DU?$char_traits@D@std@@V?$allocator@D@2@@std@@QAE@H@Z 100502ca f   msvcprtd:MSVCP90D.dll
 0002:000312d0       ?setf@ios_base@std@@QAEHHH@Z 100502d0 f   msvcprtd:MSVCP90D.dll
 0002:000312d6       ??1_Lockit@std@@QAE@XZ     100502d6 f   msvcprtd:MSVCP90D.dll
 0002:000312dc       ??0_Lockit@std@@QAE@H@Z    100502dc f   msvcprtd:MSVCP90D.dll
 0002:000312e2       ?_Debug_message@std@@YAXPB_W0I@Z 100502e2 f   msvcprtd:MSVCP90D.dll
 0002:000312e8       ??0?$basic_string@DU?$char_traits@D@std@@V?$allocator@D@2@@std@@QAE@PBD@Z 100502e8 f   msvcprtd:MSVCP90D.dll
 0002:000312ee       ??1?$basic_string@_WU?$char_traits@_W@std@@V?$allocator@_W@2@@std@@QAE@XZ 100502ee f   msvcprtd:MSVCP90D.dll
 0002:000312f4       ?c_str@?$basic_string@DU?$char_traits@D@std@@V?$allocator@D@2@@std@@QBEPBDXZ 100502f4 f   msvcprtd:MSVCP90D.dll
 0002:000312fa       ??Y?$basic_string@DU?$char_traits@D@std@@V?$allocator@D@2@@std@@QAEAAV01@PBD@Z 100502fa f   msvcprtd:MSVCP90D.dll
 0002:00031300       ??0?$basic_string@DU?$char_traits@D@std@@V?$allocator@D@2@@std@@QAE@U_Has_debug_it@01@@Z 10050300 f   msvcprtd:MSVCP90D.dll
 0002:00031306       ??1_Container_base_secure@std@@QAE@XZ 10050306 f   msvcprtd:MSVCP90D.dll
 0002:0003130c       ??0?$basic_string@DU?$char_traits@D@std@@V?$allocator@D@2@@std@@QAE@ABV01@@Z 1005030c f   msvcprtd:MSVCP90D.dll
 0002:00031312       ??0_Container_base_secure@std@@QAE@XZ 10050312 f   msvcprtd:MSVCP90D.dll
 0002:00031318       ?setstate@?$basic_ios@DU?$char_traits@D@std@@@std@@QAEXH_N@Z 10050318 f   msvcprtd:MSVCP90D.dll
 0002:0003131e       ?width@ios_base@std@@QAEHH@Z 1005031e f   msvcprtd:MSVCP90D.dll
 0002:00031324       ?sputn@?$basic_streambuf@DU?$char_traits@D@std@@@std@@QAEHPBDH@Z 10050324 f   msvcprtd:MSVCP90D.dll
 0002:0003132a       ?eq_int_type@?$char_traits@D@std@@SA_NABH0@Z 1005032a f   msvcprtd:MSVCP90D.dll
 0002:00031330       ?eof@?$char_traits@D@std@@SAHXZ 10050330 f   msvcprtd:MSVCP90D.dll
 0002:00031336       ?sputc@?$basic_streambuf@DU?$char_traits@D@std@@@std@@QAEHD@Z 10050336 f   msvcprtd:MSVCP90D.dll
 0002:0003133c       ?rdbuf@?$basic_ios@DU?$char_traits@D@std@@@std@@QBEPAV?$basic_streambuf@DU?$char_traits@D@std@@@2@XZ 1005033c f   msvcprtd:MSVCP90D.dll
 0002:00031342       ?fill@?$basic_ios@DU?$char_traits@D@std@@@std@@QBEDXZ 10050342 f   msvcprtd:MSVCP90D.dll
 0002:00031348       ?flags@ios_base@std@@QBEHXZ 10050348 f   msvcprtd:MSVCP90D.dll
 0002:0003134e       ?width@ios_base@std@@QBEHXZ 1005034e f   msvcprtd:MSVCP90D.dll
 0002:00031354       ?length@?$char_traits@D@std@@SAIPBD@Z 10050354 f   msvcprtd:MSVCP90D.dll
 0002:0003135a       ?flush@?$basic_ostream@DU?$char_traits@D@std@@@std@@QAEAAV12@XZ 1005035a f   msvcprtd:MSVCP90D.dll
 0002:00031360       ?tie@?$basic_ios@DU?$char_traits@D@std@@@std@@QBEPAV?$basic_ostream@DU?$char_traits@D@std@@@2@XZ 10050360 f   msvcprtd:MSVCP90D.dll
 0002:00031366       ?good@ios_base@std@@QBE_NXZ 10050366 f   msvcprtd:MSVCP90D.dll
 0002:0003136c       ?_Osfx@?$basic_ostream@DU?$char_traits@D@std@@@std@@QAEXXZ 1005036c f   msvcprtd:MSVCP90D.dll
 0002:00031372       ?uncaught_exception@std@@YA_NXZ 10050372 f   msvcprtd:MSVCP90D.dll
 0002:00031378       ?_Lock@?$basic_streambuf@DU?$char_traits@D@std@@@std@@QAEXXZ 10050378 f   msvcprtd:MSVCP90D.dll
 0002:0003137e       ?_Unlock@?$basic_streambuf@DU?$char_traits@D@std@@@std@@QAEXXZ 1005037e f   msvcprtd:MSVCP90D.dll
 0002:00031384       ?_Orphan_all@_Container_base_secure@std@@QBEXXZ 10050384 f   msvcprtd:MSVCP90D.dll
 0002:00031390       ??0CTimeSpan@ATL@@QAE@XZ   10050390 f   atlsd:atltime.obj
 0002:000313c0       ??0CTimeSpan@ATL@@QAE@_J@Z 100503c0 f   atlsd:atltime.obj
 0002:000313f0       ??0CTimeSpan@ATL@@QAE@JHHH@Z 100503f0 f   atlsd:atltime.obj
 0002:00031490       ?GetDays@CTimeSpan@ATL@@QBE_JXZ 10050490 f   atlsd:atltime.obj
 0002:000314c0       ?GetTotalHours@CTimeSpan@ATL@@QBE_JXZ 100504c0 f   atlsd:atltime.obj
 0002:000314f0       ?GetHours@CTimeSpan@ATL@@QBEJXZ 100504f0 f   atlsd:atltime.obj
 0002:00031540       ?GetTotalMinutes@CTimeSpan@ATL@@QBE_JXZ 10050540 f   atlsd:atltime.obj
 0002:00031570       ?GetMinutes@CTimeSpan@ATL@@QBEJXZ 10050570 f   atlsd:atltime.obj
 0002:000315c0       ?GetTotalSeconds@CTimeSpan@ATL@@QBE_JXZ 100505c0 f   atlsd:atltime.obj
 0002:000315e0       ?GetSeconds@CTimeSpan@ATL@@QBEJXZ 100505e0 f   atlsd:atltime.obj
 0002:00031630       ?GetTimeSpan@CTimeSpan@ATL@@QBE_JXZ 10050630 f   atlsd:atltime.obj
 0002:00031650       ??HCTimeSpan@ATL@@QBE?AV01@V01@@Z 10050650 f   atlsd:atltime.obj
 0002:00031690       ??GCTimeSpan@ATL@@QBE?AV01@V01@@Z 10050690 f   atlsd:atltime.obj
 0002:000316d0       ??YCTimeSpan@ATL@@QAEAAV01@V01@@Z 100506d0 f   atlsd:atltime.obj
 0002:00031710       ??ZCTimeSpan@ATL@@QAEAAV01@V01@@Z 10050710 f   atlsd:atltime.obj
 0002:00031750       ??8CTimeSpan@ATL@@QBE_NV01@@Z 10050750 f   atlsd:atltime.obj
 0002:000317a0       ??9CTimeSpan@ATL@@QBE_NV01@@Z 100507a0 f   atlsd:atltime.obj
 0002:000317f0       ??MCTimeSpan@ATL@@QBE_NV01@@Z 100507f0 f   atlsd:atltime.obj
 0002:00031850       ??OCTimeSpan@ATL@@QBE_NV01@@Z 10050850 f   atlsd:atltime.obj
 0002:000318b0       ??NCTimeSpan@ATL@@QBE_NV01@@Z 100508b0 f   atlsd:atltime.obj
 0002:00031910       ??PCTimeSpan@ATL@@QBE_NV01@@Z 10050910 f   atlsd:atltime.obj
 0002:00031970       ?GetTickCount@CTime@ATL@@SG?AV12@XZ 10050970 f   atlsd:atltime.obj
 0002:000319a0       ?IsValidFILETIME@CTime@ATL@@SGHABU_FILETIME@@@Z 100509a0 f   atlsd:atltime.obj
 0002:000319f0       ??0CTime@ATL@@QAE@XZ       100509f0 f   atlsd:atltime.obj
 0002:00031a20       ??0CTime@ATL@@QAE@_J@Z     10050a20 f   atlsd:atltime.obj
 0002:00031a50       ??0CTime@ATL@@QAE@HHHHHHH@Z 10050a50 f   atlsd:atltime.obj
 0002:00031de0       ??0CTime@ATL@@QAE@GGH@Z    10050de0 f   atlsd:atltime.obj
 0002:00031f00       ??0CTime@ATL@@QAE@ABU_SYSTEMTIME@@H@Z 10050f00 f   atlsd:atltime.obj
 0002:00031fc0       ??0CTime@ATL@@QAE@ABU_FILETIME@@H@Z 10050fc0 f   atlsd:atltime.obj
 0002:00032080       ??4CTime@ATL@@QAEAAV01@_J@Z 10051080 f   atlsd:atltime.obj
 0002:000320b0       ??YCTime@ATL@@QAEAAV01@VCTimeSpan@1@@Z 100510b0 f   atlsd:atltime.obj
 0002:000320f0       ??ZCTime@ATL@@QAEAAV01@VCTimeSpan@1@@Z 100510f0 f   atlsd:atltime.obj
 0002:00032130       ??GCTime@ATL@@QBE?AVCTimeSpan@1@V01@@Z 10051130 f   atlsd:atltime.obj
 0002:00032170       ??GCTime@ATL@@QBE?AV01@VCTimeSpan@1@@Z 10051170 f   atlsd:atltime.obj
 0002:000321b0       ??HCTime@ATL@@QBE?AV01@VCTimeSpan@1@@Z 100511b0 f   atlsd:atltime.obj
 0002:000321f0       ??8CTime@ATL@@QBE_NV01@@Z  100511f0 f   atlsd:atltime.obj
 0002:00032240       ??9CTime@ATL@@QBE_NV01@@Z  10051240 f   atlsd:atltime.obj
 0002:00032290       ??MCTime@ATL@@QBE_NV01@@Z  10051290 f   atlsd:atltime.obj
 0002:000322f0       ??OCTime@ATL@@QBE_NV01@@Z  100512f0 f   atlsd:atltime.obj
 0002:00032350       ??NCTime@ATL@@QBE_NV01@@Z  10051350 f   atlsd:atltime.obj
 0002:000323b0       ??PCTime@ATL@@QBE_NV01@@Z  100513b0 f   atlsd:atltime.obj
 0002:00032410       ?GetGmtTm@CTime@ATL@@QBEPAUtm@@PAU3@@Z 10051410 f   atlsd:atltime.obj
 0002:000324d0       ?GetLocalTm@CTime@ATL@@QBEPAUtm@@PAU3@@Z 100514d0 f   atlsd:atltime.obj
 0002:00032590       ?GetAsSystemTime@CTime@ATL@@QBE_NAAU_SYSTEMTIME@@@Z 10051590 f   atlsd:atltime.obj
 0002:00032660       ?GetTime@CTime@ATL@@QBE_JXZ 10051660 f   atlsd:atltime.obj
 0002:00032680       ?GetYear@CTime@ATL@@QBEHXZ 10051680 f   atlsd:atltime.obj
 0002:000326d0       ?GetMonth@CTime@ATL@@QBEHXZ 100516d0 f   atlsd:atltime.obj
 0002:00032720       ?GetDay@CTime@ATL@@QBEHXZ  10051720 f   atlsd:atltime.obj
 0002:00032770       ?GetHour@CTime@ATL@@QBEHXZ 10051770 f   atlsd:atltime.obj
 0002:000327c0       ?GetMinute@CTime@ATL@@QBEHXZ 100517c0 f   atlsd:atltime.obj
 0002:00032810       ?GetSecond@CTime@ATL@@QBEHXZ 10051810 f   atlsd:atltime.obj
 0002:00032860       ?GetDayOfWeek@CTime@ATL@@QBEHXZ 10051860 f   atlsd:atltime.obj
 0002:000328b0       ??0CFileTimeSpan@ATL@@QAE@XZ 100518b0 f   atlsd:atltime.obj
 0002:000328e0       ??0CFileTimeSpan@ATL@@QAE@ABV01@@Z 100518e0 f   atlsd:atltime.obj
 0002:00032910       ??0CFileTimeSpan@ATL@@QAE@_J@Z 10051910 f   atlsd:atltime.obj
 0002:00032940       ??4CFileTimeSpan@ATL@@QAEAAV01@ABV01@@Z 10051940 f   atlsd:atltime.obj
 0002:00032970       ??YCFileTimeSpan@ATL@@QAEAAV01@V01@@Z 10051970 f   atlsd:atltime.obj
 0002:000329b0       ??ZCFileTimeSpan@ATL@@QAEAAV01@V01@@Z 100519b0 f   atlsd:atltime.obj
 0002:000329f0       ??HCFileTimeSpan@ATL@@QBE?AV01@V01@@Z 100519f0 f   atlsd:atltime.obj
 0002:00032a30       ??GCFileTimeSpan@ATL@@QBE?AV01@V01@@Z 10051a30 f   atlsd:atltime.obj
 0002:00032a70       ??8CFileTimeSpan@ATL@@QBE_NV01@@Z 10051a70 f   atlsd:atltime.obj
 0002:00032ac0       ??9CFileTimeSpan@ATL@@QBE_NV01@@Z 10051ac0 f   atlsd:atltime.obj
 0002:00032b10       ??MCFileTimeSpan@ATL@@QBE_NV01@@Z 10051b10 f   atlsd:atltime.obj
 0002:00032b70       ??OCFileTimeSpan@ATL@@QBE_NV01@@Z 10051b70 f   atlsd:atltime.obj
 0002:00032bd0       ??NCFileTimeSpan@ATL@@QBE_NV01@@Z 10051bd0 f   atlsd:atltime.obj
 0002:00032c30       ??PCFileTimeSpan@ATL@@QBE_NV01@@Z 10051c30 f   atlsd:atltime.obj
 0002:00032c90       ?GetTimeSpan@CFileTimeSpan@ATL@@QBE_JXZ 10051c90 f   atlsd:atltime.obj
 0002:00032cb0       ?SetTimeSpan@CFileTimeSpan@ATL@@QAEX_J@Z 10051cb0 f   atlsd:atltime.obj
 0002:00032ce0       ??0CFileTime@ATL@@QAE@XZ   10051ce0 f   atlsd:atltime.obj
 0002:00032d10       ??0CFileTime@ATL@@QAE@ABU_FILETIME@@@Z 10051d10 f   atlsd:atltime.obj
 0002:00032d50       ??0CFileTime@ATL@@QAE@_K@Z 10051d50 f   atlsd:atltime.obj
 0002:00032d90       ??4CFileTime@ATL@@QAEAAV01@ABU_FILETIME@@@Z 10051d90 f   atlsd:atltime.obj
 0002:00032dd0       ?GetTickCount@CFileTime@ATL@@SG?AV12@XZ 10051dd0 f   atlsd:atltime.obj
 0002:00032e10       ??YCFileTime@ATL@@QAEAAV01@VCFileTimeSpan@1@@Z 10051e10 f   atlsd:atltime.obj
 0002:00032e60       ??ZCFileTime@ATL@@QAEAAV01@VCFileTimeSpan@1@@Z 10051e60 f   atlsd:atltime.obj
 0002:00032eb0       ??HCFileTime@ATL@@QBE?AV01@VCFileTimeSpan@1@@Z 10051eb0 f   atlsd:atltime.obj
 0002:00032f00       ??GCFileTime@ATL@@QBE?AV01@VCFileTimeSpan@1@@Z 10051f00 f   atlsd:atltime.obj
 0002:00032f50       ??GCFileTime@ATL@@QBE?AVCFileTimeSpan@1@V01@@Z 10051f50 f   atlsd:atltime.obj
 0002:00032fa0       ??8CFileTime@ATL@@QBE_NV01@@Z 10051fa0 f   atlsd:atltime.obj
 0002:00033010       ??9CFileTime@ATL@@QBE_NV01@@Z 10052010 f   atlsd:atltime.obj
 0002:00033080       ??MCFileTime@ATL@@QBE_NV01@@Z 10052080 f   atlsd:atltime.obj
 0002:000330f0       ??OCFileTime@ATL@@QBE_NV01@@Z 100520f0 f   atlsd:atltime.obj
 0002:00033160       ??NCFileTime@ATL@@QBE_NV01@@Z 10052160 f   atlsd:atltime.obj
 0002:000331d0       ??PCFileTime@ATL@@QBE_NV01@@Z 100521d0 f   atlsd:atltime.obj
 0002:00033240       ?GetTime@CFileTime@ATL@@QBE_KXZ 10052240 f   atlsd:atltime.obj
 0002:00033280       ?SetTime@CFileTime@ATL@@QAEX_K@Z 10052280 f   atlsd:atltime.obj
 0002:000332c0       ?UTCToLocal@CFileTime@ATL@@QBE?AV12@XZ 100522c0 f   atlsd:atltime.obj
 0002:00033310       ?LocalToUTC@CFileTime@ATL@@QBE?AV12@XZ 10052310 f   atlsd:atltime.obj
 0002:00033360       ?AtlThrowImpl@ATL@@YGXJ@Z  10052360 f i atlsd:atltime.obj
 0002:00033410       ??0CSize@@QAE@XZ           10052410 f   atlsd:atltypes.obj
 0002:00033430       ??0CSize@@QAE@HH@Z         10052430 f   atlsd:atltypes.obj
 0002:00033460       ??0CSize@@QAE@UtagSIZE@@@Z 10052460 f   atlsd:atltypes.obj
 0002:00033490       ??0CSize@@QAE@UtagPOINT@@@Z 10052490 f   atlsd:atltypes.obj
 0002:000334c0       ??0CSize@@QAE@K@Z          100524c0 f   atlsd:atltypes.obj
 0002:00033510       ??8CSize@@QBEHUtagSIZE@@@Z 10052510 f   atlsd:atltypes.obj
 0002:00033560       ??9CSize@@QBEHUtagSIZE@@@Z 10052560 f   atlsd:atltypes.obj
 0002:000335b0       ??YCSize@@QAEXUtagSIZE@@@Z 100525b0 f   atlsd:atltypes.obj
 0002:000335f0       ??ZCSize@@QAEXUtagSIZE@@@Z 100525f0 f   atlsd:atltypes.obj
 0002:00033630       ?SetSize@CSize@@QAEXHH@Z   10052630 f   atlsd:atltypes.obj
 0002:00033660       ??HCSize@@QBE?AV0@UtagSIZE@@@Z 10052660 f   atlsd:atltypes.obj
 0002:000336a0       ??GCSize@@QBE?AV0@UtagSIZE@@@Z 100526a0 f   atlsd:atltypes.obj
 0002:000336e0       ??GCSize@@QBE?AV0@XZ       100526e0 f   atlsd:atltypes.obj
 0002:00033720       ??HCSize@@QBE?AVCPoint@@UtagPOINT@@@Z 10052720 f   atlsd:atltypes.obj
 0002:00033760       ??GCSize@@QBE?AVCPoint@@UtagPOINT@@@Z 10052760 f   atlsd:atltypes.obj
 0002:000337a0       ??HCSize@@QBE?AVCRect@@PBUtagRECT@@@Z 100527a0 f   atlsd:atltypes.obj
 0002:00033800       ??GCSize@@QBE?AVCRect@@PBUtagRECT@@@Z 10052800 f   atlsd:atltypes.obj
 0002:00033860       ??0CPoint@@QAE@XZ          10052860 f   atlsd:atltypes.obj
 0002:00033880       ??0CPoint@@QAE@HH@Z        10052880 f   atlsd:atltypes.obj
 0002:000338b0       ??0CPoint@@QAE@UtagPOINT@@@Z 100528b0 f   atlsd:atltypes.obj
 0002:000338e0       ??0CPoint@@QAE@UtagSIZE@@@Z 100528e0 f   atlsd:atltypes.obj
 0002:00033910       ??0CPoint@@QAE@J@Z         10052910 f   atlsd:atltypes.obj
 0002:00033960       ?Offset@CPoint@@QAEXHH@Z   10052960 f   atlsd:atltypes.obj
 0002:000339a0       ?Offset@CPoint@@QAEXUtagPOINT@@@Z 100529a0 f   atlsd:atltypes.obj
 0002:000339e0       ?Offset@CPoint@@QAEXUtagSIZE@@@Z 100529e0 f   atlsd:atltypes.obj
 0002:00033a20       ?SetPoint@CPoint@@QAEXHH@Z 10052a20 f   atlsd:atltypes.obj
 0002:00033a50       ??8CPoint@@QBEHUtagPOINT@@@Z 10052a50 f   atlsd:atltypes.obj
 0002:00033aa0       ??9CPoint@@QBEHUtagPOINT@@@Z 10052aa0 f   atlsd:atltypes.obj
 0002:00033af0       ??YCPoint@@QAEXUtagSIZE@@@Z 10052af0 f   atlsd:atltypes.obj
 0002:00033b30       ??ZCPoint@@QAEXUtagSIZE@@@Z 10052b30 f   atlsd:atltypes.obj
 0002:00033b70       ??YCPoint@@QAEXUtagPOINT@@@Z 10052b70 f   atlsd:atltypes.obj
 0002:00033bb0       ??ZCPoint@@QAEXUtagPOINT@@@Z 10052bb0 f   atlsd:atltypes.obj
 0002:00033bf0       ??HCPoint@@QBE?AV0@UtagSIZE@@@Z 10052bf0 f   atlsd:atltypes.obj
 0002:00033c30       ??GCPoint@@QBE?AV0@UtagSIZE@@@Z 10052c30 f   atlsd:atltypes.obj
 0002:00033c70       ??GCPoint@@QBE?AV0@XZ      10052c70 f   atlsd:atltypes.obj
 0002:00033cb0       ??HCPoint@@QBE?AV0@UtagPOINT@@@Z 10052cb0 f   atlsd:atltypes.obj
 0002:00033cf0       ??GCPoint@@QBE?AVCSize@@UtagPOINT@@@Z 10052cf0 f   atlsd:atltypes.obj
 0002:00033d30       ??HCPoint@@QBE?AVCRect@@PBUtagRECT@@@Z 10052d30 f   atlsd:atltypes.obj
 0002:00033d90       ??GCPoint@@QBE?AVCRect@@PBUtagRECT@@@Z 10052d90 f   atlsd:atltypes.obj
 0002:00033df0       ??0CRect@@QAE@XZ           10052df0 f   atlsd:atltypes.obj
 0002:00033e10       ??0CRect@@QAE@HHHH@Z       10052e10 f   atlsd:atltypes.obj
 0002:00033e60       ??0CRect@@QAE@ABUtagRECT@@@Z 10052e60 f   atlsd:atltypes.obj
 0002:00033e90       ??0CRect@@QAE@PBUtagRECT@@@Z 10052e90 f   atlsd:atltypes.obj
 0002:00033ec0       ??0CRect@@QAE@UtagPOINT@@UtagSIZE@@@Z 10052ec0 f   atlsd:atltypes.obj
 0002:00033f10       ??0CRect@@QAE@UtagPOINT@@0@Z 10052f10 f   atlsd:atltypes.obj
 0002:00033f60       ?Width@CRect@@QBEHXZ       10052f60 f   atlsd:atltypes.obj
 0002:00033f80       ?Height@CRect@@QBEHXZ      10052f80 f   atlsd:atltypes.obj
 0002:00033fa0       ?Size@CRect@@QBE?AVCSize@@XZ 10052fa0 f   atlsd:atltypes.obj
 0002:00033fe0       ?TopLeft@CRect@@QAEAAVCPoint@@XZ 10052fe0 f   atlsd:atltypes.obj
 0002:00034000       ?BottomRight@CRect@@QAEAAVCPoint@@XZ 10053000 f   atlsd:atltypes.obj
 0002:00034020       ?TopLeft@CRect@@QBEABVCPoint@@XZ 10053020 f   atlsd:atltypes.obj
 0002:00034040       ?BottomRight@CRect@@QBEABVCPoint@@XZ 10053040 f   atlsd:atltypes.obj
 0002:00034060       ?CenterPoint@CRect@@QBE?AVCPoint@@XZ 10053060 f   atlsd:atltypes.obj
 0002:000340b0       ?SwapLeftRight@CRect@@QAEXXZ 100530b0 f   atlsd:atltypes.obj
 0002:000340d0       ?SwapLeftRight@CRect@@SGXPAUtagRECT@@@Z 100530d0 f   atlsd:atltypes.obj
 0002:00034110       ??BCRect@@QAEPAUtagRECT@@XZ 10053110 f   atlsd:atltypes.obj
 0002:00034130       ??BCRect@@QBEPBUtagRECT@@XZ 10053130 f   atlsd:atltypes.obj
 0002:00034150       ?IsRectEmpty@CRect@@QBEHXZ 10053150 f   atlsd:atltypes.obj
 0002:00034170       ?IsRectNull@CRect@@QBEHXZ  10053170 f   atlsd:atltypes.obj
 0002:000341d0       ?PtInRect@CRect@@QBEHUtagPOINT@@@Z 100531d0 f   atlsd:atltypes.obj
 0002:00034200       ?SetRect@CRect@@QAEXHHHH@Z 10053200 f   atlsd:atltypes.obj
 0002:00034240       ?SetRect@CRect@@QAEXUtagPOINT@@0@Z 10053240 f   atlsd:atltypes.obj
 0002:00034280       ?SetRectEmpty@CRect@@QAEXXZ 10053280 f   atlsd:atltypes.obj
 0002:000342a0       ?CopyRect@CRect@@QAEXPBUtagRECT@@@Z 100532a0 f   atlsd:atltypes.obj
 0002:000342d0       ?EqualRect@CRect@@QBEHPBUtagRECT@@@Z 100532d0 f   atlsd:atltypes.obj
 0002:00034300       ?InflateRect@CRect@@QAEXHH@Z 10053300 f   atlsd:atltypes.obj
 0002:00034330       ?InflateRect@CRect@@QAEXUtagSIZE@@@Z 10053330 f   atlsd:atltypes.obj
 0002:00034360       ?DeflateRect@CRect@@QAEXHH@Z 10053360 f   atlsd:atltypes.obj
 0002:00034390       ?DeflateRect@CRect@@QAEXUtagSIZE@@@Z 10053390 f   atlsd:atltypes.obj
 0002:000343c0       ?OffsetRect@CRect@@QAEXHH@Z 100533c0 f   atlsd:atltypes.obj
 0002:000343f0       ?OffsetRect@CRect@@QAEXUtagPOINT@@@Z 100533f0 f   atlsd:atltypes.obj
 0002:00034420       ?OffsetRect@CRect@@QAEXUtagSIZE@@@Z 10053420 f   atlsd:atltypes.obj
 0002:00034450       ?MoveToY@CRect@@QAEXH@Z    10053450 f   atlsd:atltypes.obj
 0002:00034490       ?MoveToX@CRect@@QAEXH@Z    10053490 f   atlsd:atltypes.obj
 0002:000344d0       ?MoveToXY@CRect@@QAEXHH@Z  100534d0 f   atlsd:atltypes.obj
 0002:00034500       ?MoveToXY@CRect@@QAEXUtagPOINT@@@Z 10053500 f   atlsd:atltypes.obj
 0002:00034530       ?IntersectRect@CRect@@QAEHPBUtagRECT@@0@Z 10053530 f   atlsd:atltypes.obj
 0002:00034560       ?UnionRect@CRect@@QAEHPBUtagRECT@@0@Z 10053560 f   atlsd:atltypes.obj
 0002:00034590       ??4CRect@@QAEXABUtagRECT@@@Z 10053590 f   atlsd:atltypes.obj
 0002:000345c0       ??8CRect@@QBEHABUtagRECT@@@Z 100535c0 f   atlsd:atltypes.obj
 0002:000345f0       ??9CRect@@QBEHABUtagRECT@@@Z 100535f0 f   atlsd:atltypes.obj
 0002:00034620       ??YCRect@@QAEXUtagPOINT@@@Z 10053620 f   atlsd:atltypes.obj
 0002:00034650       ??YCRect@@QAEXUtagSIZE@@@Z 10053650 f   atlsd:atltypes.obj
 0002:00034680       ??YCRect@@QAEXPBUtagRECT@@@Z 10053680 f   atlsd:atltypes.obj
 0002:000346b0       ??ZCRect@@QAEXUtagPOINT@@@Z 100536b0 f   atlsd:atltypes.obj
 0002:000346e0       ??ZCRect@@QAEXUtagSIZE@@@Z 100536e0 f   atlsd:atltypes.obj
 0002:00034710       ??ZCRect@@QAEXPBUtagRECT@@@Z 10053710 f   atlsd:atltypes.obj
 0002:00034740       ??_4CRect@@QAEXABUtagRECT@@@Z 10053740 f   atlsd:atltypes.obj
 0002:00034770       ??_5CRect@@QAEXABUtagRECT@@@Z 10053770 f   atlsd:atltypes.obj
 0002:000347a0       ??HCRect@@QBE?AV0@UtagPOINT@@@Z 100537a0 f   atlsd:atltypes.obj
 0002:00034810       ??GCRect@@QBE?AV0@UtagPOINT@@@Z 10053810 f   atlsd:atltypes.obj
 0002:00034890       ??HCRect@@QBE?AV0@UtagSIZE@@@Z 10053890 f   atlsd:atltypes.obj
 0002:00034900       ??GCRect@@QBE?AV0@UtagSIZE@@@Z 10053900 f   atlsd:atltypes.obj
 0002:00034980       ??HCRect@@QBE?AV0@PBUtagRECT@@@Z 10053980 f   atlsd:atltypes.obj
 0002:000349e0       ??GCRect@@QBE?AV0@PBUtagRECT@@@Z 100539e0 f   atlsd:atltypes.obj
 0002:00034a40       ??ICRect@@QBE?AV0@ABUtagRECT@@@Z 10053a40 f   atlsd:atltypes.obj
 0002:00034aa0       ??UCRect@@QBE?AV0@ABUtagRECT@@@Z 10053aa0 f   atlsd:atltypes.obj
 0002:00034b00       ?SubtractRect@CRect@@QAEHPBUtagRECT@@0@Z 10053b00 f   atlsd:atltypes.obj
 0002:00034b30       ?NormalizeRect@CRect@@QAEXXZ 10053b30 f   atlsd:atltypes.obj
 0002:00034bb0       ?InflateRect@CRect@@QAEXPBUtagRECT@@@Z 10053bb0 f   atlsd:atltypes.obj
 0002:00034c20       ?InflateRect@CRect@@QAEXHHHH@Z 10053c20 f   atlsd:atltypes.obj
 0002:00034c80       ?DeflateRect@CRect@@QAEXPBUtagRECT@@@Z 10053c80 f   atlsd:atltypes.obj
 0002:00034cf0       ?DeflateRect@CRect@@QAEXHHHH@Z 10053cf0 f   atlsd:atltypes.obj
 0002:00034d50       ?MulDiv@CRect@@QBE?AV1@HH@Z 10053d50 f   atlsd:atltypes.obj
 0002:00034de0       ??0CAtlAllocator@@QAE@XZ   10053de0 f i atlsd:Externs.obj
 0002:00034e40       ??0CTraceSnapshot@@QAE@XZ  10053e40 f i atlsd:Externs.obj
 0002:00034e70       ??0?$CSimpleArray@UCModuleInfo@CTraceSnapshot@@V?$CSimpleArrayEqualHelper@UCModuleInfo@CTraceSnapshot@@@ATL@@@ATL@@QAE@XZ 10053e70 f i atlsd:Externs.obj
 0002:00034eb0       ??0?$CSimpleArray@KV?$CSimpleArrayEqualHelper@K@ATL@@@ATL@@QAE@XZ 10053eb0 f i atlsd:Externs.obj
 0002:00035050       ??0CAtlException@ATL@@QAE@J@Z 10054050 f i atlsd:Externs.obj
 0002:00035070       ?AtlCrtErrorCheck@ATL@@YAHH@Z 10054070 f i atlsd:Externs.obj
 0002:00035150       ??0CTrace@ATL@@AAE@P6AHHPBDH00ZZ@Z 10054150 f i atlsd:Externs.obj
 0002:000351a0       ??1CAtlAllocator@@QAE@XZ   100541a0 f i atlsd:Externs.obj
 0002:000351d0       ??1CTraceSnapshot@@QAE@XZ  100541d0 f i atlsd:Externs.obj
 0002:00035200       ??1?$CSimpleArray@UCModuleInfo@CTraceSnapshot@@V?$CSimpleArrayEqualHelper@UCModuleInfo@CTraceSnapshot@@@ATL@@@ATL@@QAE@XZ 10054200 f i atlsd:Externs.obj
 0002:00035220       ??1?$CSimpleArray@KV?$CSimpleArrayEqualHelper@K@ATL@@@ATL@@QAE@XZ 10054220 f i atlsd:Externs.obj
 0002:00035240       ?RemoveAll@?$CSimpleArray@UCModuleInfo@CTraceSnapshot@@V?$CSimpleArrayEqualHelper@UCModuleInfo@CTraceSnapshot@@@ATL@@@ATL@@QAEXXZ 10054240 f i atlsd:Externs.obj
 0002:000352c0       ?RemoveAll@?$CSimpleArray@KV?$CSimpleArrayEqualHelper@K@ATL@@@ATL@@QAEXXZ 100542c0 f i atlsd:Externs.obj
 0002:00035340       ??1CTrace@ATL@@AAE@XZ      10054340 f i atlsd:Externs.obj
 0002:00035360       ?NotifyTool@ATL@@YGXXZ     10054360 f   atlsd:AtlDebugAPI.obj
 0002:000353b0       _AtlTraceRegister@8        100543b0 f   atlsd:AtlDebugAPI.obj
 0002:00035440       _AtlTraceUnregister@4      10054440 f   atlsd:AtlDebugAPI.obj
 0002:00035480       _AtlTraceRegisterCategoryA@8 10054480 f   atlsd:AtlDebugAPI.obj
 0002:000354e0       _AtlTraceRegisterCategoryU@8 100544e0 f   atlsd:AtlDebugAPI.obj
 0002:00035540       _AtlTraceModifyProcess@20  10054540 f   atlsd:AtlDebugAPI.obj
 0002:00035610       ?GetProcess@CAtlAllocator@@QBEPAVCAtlTraceProcess@@XZ 10054610 f i atlsd:AtlDebugAPI.obj
 0002:00035630       _AtlTraceModifyModule@16   10054630 f   atlsd:AtlDebugAPI.obj
 0002:00035750       _AtlTraceModifyCategory@16 10054750 f   atlsd:AtlDebugAPI.obj
 0002:00035830       _AtlTraceGetProcess@20     10054830 f   atlsd:AtlDebugAPI.obj
 0002:00035930       _AtlTraceGetModule@16      10054930 f   atlsd:AtlDebugAPI.obj
 0002:00035a80       _AtlTraceGetCategory@16    10054a80 f   atlsd:AtlDebugAPI.obj
 0002:00035b90       _AtlTraceGetUpdateEventNameA@4 10054b90 f   atlsd:AtlDebugAPI.obj
 0002:00035bd0       _AtlTraceGetUpdateEventNameA_s@8 10054bd0 f   atlsd:AtlDebugAPI.obj
 0002:00035c10       _AtlTraceGetUpdateEventNameU@4 10054c10 f   atlsd:AtlDebugAPI.obj
 0002:00035c80       _AtlTraceGetUpdateEventNameU_s@8 10054c80 f   atlsd:AtlDebugAPI.obj
 0002:00035cf0       _AtlTraceVA                10054cf0 f   atlsd:AtlDebugAPI.obj
 0002:000360d0       ?Name@CAtlTraceCategory@@QBEPB_WXZ 100550d0 f i atlsd:AtlDebugAPI.obj
 0002:000360f0       _AtlTraceVU                100550f0 f   atlsd:AtlDebugAPI.obj
 0002:00036510       _AtlTraceOpenProcess@4     10055510 f   atlsd:AtlDebugAPI.obj
 0002:00036640       ??_GCAtlAllocator@@QAEPAXI@Z 10055640 f i atlsd:AtlDebugAPI.obj
 0002:00036680       _AtlTraceCloseProcess@4    10055680 f   atlsd:AtlDebugAPI.obj
 0002:00036730       _AtlTraceSnapshotProcess@4 10055730 f   atlsd:AtlDebugAPI.obj
 0002:000367b0       _AtlTraceGetProcessInfo@8  100557b0 f   atlsd:AtlDebugAPI.obj
 0002:000369b0       ?Path@CAtlTraceModuleInfo@@QBEPB_WXZ 100559b0 f i atlsd:AtlDebugAPI.obj
 0002:000369d0       ?Name@CAtlTraceModuleInfo@@QBEPB_WXZ 100559d0 f i atlsd:AtlDebugAPI.obj
 0002:000369f0       ?Id@CAtlTraceProcess@@QBEKXZ 100559f0 f i atlsd:AtlDebugAPI.obj
 0002:00036a10       _AtlTraceGetModuleInfo@12  10055a10 f   atlsd:AtlDebugAPI.obj
 0002:00036c10       _AtlTraceGetCategoryInfo@16 10055c10 f   atlsd:AtlDebugAPI.obj
 0002:00037070       ?CrtDbgReport@CAtlTraceModule@@QBEP6AHHPBDH00ZZXZ 10056070 f i atlsd:AtlDebugAPI.obj
 0002:00037090       ?_IsTracingEnabled@ATL@@YA_NKKI@Z 10056090 f   atlsd:AtlDebugAPI.obj
 0002:000370d0       ?GetSize@?$CSimpleArray@UCModuleInfo@CTraceSnapshot@@V?$CSimpleArrayEqualHelper@UCModuleInfo@CTraceSnapshot@@@ATL@@@ATL@@QBEHXZ 100560d0 f i atlsd:AtlDebugAPI.obj
 0002:000370f0       ??A?$CSimpleArray@UCModuleInfo@CTraceSnapshot@@V?$CSimpleArrayEqualHelper@UCModuleInfo@CTraceSnapshot@@@ATL@@@ATL@@QAEAAUCModuleInfo@CTraceSnapshot@@H@Z 100560f0 f i atlsd:AtlDebugAPI.obj
 0002:00037180       ?strcpy_s@Checked@ATL@@YAXPADIPBD@Z 10056180 f i atlsd:AtlDebugAPI.obj
 0002:000371b0       ?wcscpy_s@Checked@ATL@@YAXPA_WIPB_W@Z 100561b0 f i atlsd:AtlDebugAPI.obj
 0002:000371e0       ??0?$CA2WEX@$0IA@@ATL@@QAE@PBD@Z 100561e0 f i atlsd:AtlDebugAPI.obj
 0002:00037220       ??1?$CA2WEX@$0IA@@ATL@@QAE@XZ 10056220 f i atlsd:AtlDebugAPI.obj
 0002:00037250       ??B?$CA2WEX@$0IA@@ATL@@QBEPA_WXZ 10056250 f i atlsd:AtlDebugAPI.obj
 0002:00037270       ?Init@?$CA2WEX@$0IA@@ATL@@AAEXPBDI@Z 10056270 f i atlsd:AtlDebugAPI.obj
 0002:000373b0       ?AtlThrowLastWin32@ATL@@YGXXZ 100563b0 f i atlsd:AtlDebugAPI.obj
 0002:000373e0       _HRESULT_FROM_WIN32        100563e0 f i atlsd:AtlDebugAPI.obj
 0002:00037420       ??$AtlConvFreeMemory@_W@ATL@@YAXPA_W0H@Z 10056420 f i atlsd:AtlDebugAPI.obj
 0002:00037470       ??$AtlConvAllocMemory@_W@ATL@@YAXPAPA_WHPA_WH@Z 10056470 f i atlsd:AtlDebugAPI.obj
 0002:00037640       ??0CTraceCategory@ATL@@QAE@PBDI@Z 10056640 f i atlsd:atltrace.obj
 0002:000376a0       ?ChangeCategory@CTrace@ATL@@QAE_NKIW4ATLTRACESTATUS@2@@Z 100566a0 f i atlsd:atltrace.obj
 0002:000376e0       ?RegisterCategory@CTrace@ATL@@QAEKPBD@Z 100566e0 f i atlsd:atltrace.obj
 0002:00037710       ?Init@CAtlAllocator@@QAE_NPBDK@Z 10056710 f   atlsd:Allocate.obj
 0002:00037b10       ?IncRef@CAtlTraceProcess@@QAEIXZ 10056b10 f i atlsd:Allocate.obj
 0002:00037b50       ?Base@CAtlTraceProcess@@QBEPAXXZ 10056b50 f i atlsd:Allocate.obj
 0002:00037b70       ?Open@CAtlAllocator@@QAE_NPBD@Z 10056b70 f   atlsd:Allocate.obj
 0002:00037d00       ?Close@CAtlAllocator@@QAEX_N@Z 10056d00 f   atlsd:Allocate.obj
 0002:00037d80       ?DecRef@CAtlTraceProcess@@QAEIXZ 10056d80 f i atlsd:Allocate.obj
 0002:00037dc0       ?GetModule@CAtlAllocator@@QBEPAVCAtlTraceModule@@H@Z 10056dc0 f   atlsd:Allocate.obj
 0002:00037e70       ?ModuleCount@CAtlTraceProcess@@QBEHXZ 10056e70 f i atlsd:Allocate.obj
 0002:00037e90       ?GetCategory@CAtlAllocator@@QBEPAVCAtlTraceCategory@@H@Z 10056e90 f   atlsd:Allocate.obj
 0002:00037f50       ?MaxSize@CAtlTraceProcess@@QBEKXZ 10056f50 f i atlsd:Allocate.obj
 0002:00037f70       ?CategoryCount@CAtlTraceProcess@@QBEHXZ 10056f70 f i atlsd:Allocate.obj
 0002:00037f90       ?GetCategoryCount@CAtlAllocator@@QBEHH@Z 10056f90 f   atlsd:Allocate.obj
 0002:00038010       ?GetCategoryCount@CAtlAllocator@@QBEHABVCAtlTraceModule@@@Z 10057010 f   atlsd:Allocate.obj
 0002:00038080       ?GetModuleCount@CAtlAllocator@@QBEHXZ 10057080 f   atlsd:Allocate.obj
 0002:000380e0       ?FindModule@CAtlAllocator@@QBE_NPB_WPAI@Z 100570e0 f   atlsd:Allocate.obj
 0002:00038170       ?AddModule@CAtlAllocator@@QAEHPAUHINSTANCE__@@@Z 10057170 f   atlsd:Allocate.obj
 0002:000383a0       ?TryAllocate@CAtlTraceSettings@@QAE_NXZ 100573a0 f i atlsd:Allocate.obj
 0002:000383f0       ?MarkValid@CAtlTraceSettings@@QAEXJ@Z 100573f0 f i atlsd:Allocate.obj
 0002:00038440       ?IncModuleCount@CAtlTraceProcess@@QAEXI@Z 10057440 f i atlsd:Allocate.obj
 0002:00038470       ?AddCategory@CAtlAllocator@@QAEHHPB_W@Z 10057470 f   atlsd:Allocate.obj
 0002:00038710       ?TryAddRef@CAtlTraceSettings@@QAE_NXZ 10057710 f i atlsd:Allocate.obj
 0002:00038760       ?Release@CAtlTraceSettings@@QAEXXZ 10057760 f i atlsd:Allocate.obj
 0002:000387a0       ?IncCategoryCount@CAtlTraceProcess@@QAEXI@Z 100577a0 f i atlsd:Allocate.obj
 0002:000387d0       ?RemoveModule@CAtlAllocator@@QAE_NH@Z 100577d0 f   atlsd:Allocate.obj
 0002:00038890       ?CleanUp@CAtlAllocator@@QAEXXZ 10057890 f   atlsd:Allocate.obj
 0002:000388b0       ?TakeSnapshot@CAtlAllocator@@QAEXXZ 100578b0 f   atlsd:Allocate.obj
 0002:00038ae0       ?ReleaseSnapshot@CAtlAllocator@@QAEXXZ 10057ae0 f   atlsd:Allocate.obj
 0002:00038be0       ?Add@?$CSimpleArray@UCModuleInfo@CTraceSnapshot@@V?$CSimpleArrayEqualHelper@UCModuleInfo@CTraceSnapshot@@@ATL@@@ATL@@QAEHABUCModuleInfo@CTraceSnapshot@@@Z 10057be0 f i atlsd:Allocate.obj
 0002:00038d50       ?GetSize@?$CSimpleArray@KV?$CSimpleArrayEqualHelper@K@ATL@@@ATL@@QBEHXZ 10057d50 f i atlsd:Allocate.obj
 0002:00038d70       ?Add@?$CSimpleArray@KV?$CSimpleArrayEqualHelper@K@ATL@@@ATL@@QAEHABK@Z 10057d70 f i atlsd:Allocate.obj
 0002:00038ee0       ?RemoveAt@?$CSimpleArray@KV?$CSimpleArrayEqualHelper@K@ATL@@@ATL@@QAEHH@Z 10057ee0 f i atlsd:Allocate.obj
 0002:00038fd0       ??A?$CSimpleArray@KV?$CSimpleArrayEqualHelper@K@ATL@@@ATL@@QAEAAKH@Z 10057fd0 f i atlsd:Allocate.obj
 0002:00039060       ?InternalSetAtIndex@?$CSimpleArray@UCModuleInfo@CTraceSnapshot@@V?$CSimpleArrayEqualHelper@UCModuleInfo@CTraceSnapshot@@@ATL@@@ATL@@QAEXHABUCModuleInfo@CTraceSnapshot@@@Z 10058060 f i atlsd:Allocate.obj
 0002:000390c0       ?InternalSetAtIndex@?$CSimpleArray@KV?$CSimpleArrayEqualHelper@K@ATL@@@ATL@@QAEXHABK@Z 100580c0 f i atlsd:Allocate.obj
 0002:00039120       ??0Wrapper@?$CSimpleArray@UCModuleInfo@CTraceSnapshot@@V?$CSimpleArrayEqualHelper@UCModuleInfo@CTraceSnapshot@@@ATL@@@ATL@@QAE@ABUCModuleInfo@CTraceSnapshot@@@Z 10058120 f i atlsd:Allocate.obj
 0002:00039160       ??0Wrapper@?$CSimpleArray@KV?$CSimpleArrayEqualHelper@K@ATL@@@ATL@@QAE@ABK@Z 10058160 f i atlsd:Allocate.obj
 0002:00039190       ??$?2UCModuleInfo@CTraceSnapshot@@@Wrapper@?$CSimpleArray@UCModuleInfo@CTraceSnapshot@@V?$CSimpleArrayEqualHelper@UCModuleInfo@CTraceSnapshot@@@ATL@@@ATL@@SAPAXIPAUCModuleInfo@CTraceSnapshot@@@Z 10058190 f i atlsd:Allocate.obj
 0002:000391a0       ??$?2K@Wrapper@?$CSimpleArray@KV?$CSimpleArrayEqualHelper@K@ATL@@@ATL@@SAPAXIPAK@Z 100581a0 f i atlsd:Allocate.obj
 0002:000391b0       ??0CAtlTraceModuleInfo@@QAE@XZ 100581b0 f   atlsd:AtlTraceModuleManager.obj
 0002:00039210       ?Reset@CAtlTraceModuleInfo@@QAEXPAUHINSTANCE__@@@Z 10058210 f   atlsd:AtlTraceModuleManager.obj
 0002:000393a0       ??0CAtlTraceCategory@@QAE@XZ 100583a0 f   atlsd:AtlTraceModuleManager.obj
 0002:000393e0       ??0CAtlTraceSettings@@QAE@XZ 100583e0 f i atlsd:AtlTraceModuleManager.obj
 0002:00039430       ?Reset@CAtlTraceCategory@@QAEXPB_WJ@Z 10058430 f   atlsd:AtlTraceModuleManager.obj
 0002:00039490       ??0CAtlTraceModule@@QAE@XZ 10058490 f   atlsd:AtlTraceModuleManager.obj
 0002:000394d0       ?CrtDbgReport@CAtlTraceModule@@QAEXP6AHHPBDH00ZZ@Z 100584d0 f   atlsd:AtlTraceModuleManager.obj
 0002:00039510       ??0CAtlTraceProcess@@QAE@K@Z 10058510 f   atlsd:AtlTraceModuleManager.obj
 0002:00039620       ?GetNextCookie@CAtlTraceProcess@@QAEJXZ 10058620 f   atlsd:AtlTraceModuleManager.obj
 0002:00039644       _MiniDumpWriteDump@28      10058644 f   dbghelp:dbghelp.dll
 0002:0003964a       _gethostname@8             1005864a f   wsock32:WSOCK32.dll
 0002:00039650       _WSAStartup@8              10058650 f   wsock32:WSOCK32.dll
 0002:00039656       ?AfxWndProc@@YGJPAUHWND__@@IIJ@Z 10058656 f   mfc90d:mfc90d.dll
 0002:0003965c       ??3CObject@@SGXPAXPBDH@Z   1005865c f   mfc90d:mfc90d.dll
 0002:00039662       ?AfxTermThread@@YGXPAUHINSTANCE__@@@Z 10058662 f   mfc90d:mfc90d.dll
 0002:00039668       ?AfxTermExtensionModule@@YGXAAUAFX_EXTENSION_MODULE@@H@Z 10058668 f   mfc90d:mfc90d.dll
 0002:0003966e       ?AfxUnlockTempMaps@@YGHH@Z 1005866e f   mfc90d:mfc90d.dll
 0002:00039674       ?AfxLockTempMaps@@YGXXZ    10058674 f   mfc90d:mfc90d.dll
 0002:0003967a       ?AfxGetModuleThreadState@@YGPAVAFX_MODULE_THREAD_STATE@@XZ 1005867a f   mfc90d:mfc90d.dll
 0002:00039680       ?AfxSetModuleState@@YGPAVAFX_MODULE_STATE@@PAV1@@Z 10058680 f   mfc90d:mfc90d.dll
 0002:00039686       ?Delete@CException@@QAEXXZ 10058686 f   mfc90d:mfc90d.dll
 0002:0003968c       ?IsKindOf@CObject@@QBEHPBUCRuntimeClass@@@Z 1005868c f   mfc90d:mfc90d.dll
 0002:00039692       ?GetThisClass@CMemoryException@@SGPAUCRuntimeClass@@XZ 10058692 f   mfc90d:mfc90d.dll
 0002:00039698       ??0CDynLinkLibrary@@QAE@AAUAFX_EXTENSION_MODULE@@H@Z 10058698 f   mfc90d:mfc90d.dll
 0002:0003969e       ??2CObject@@SGPAXIPBDH@Z   1005869e f   mfc90d:mfc90d.dll
 0002:000396a4       ?AfxInitExtensionModule@@YGHAAUAFX_EXTENSION_MODULE@@PAUHINSTANCE__@@@Z 100586a4 f   mfc90d:mfc90d.dll
 0002:000396aa       ?AfxGetApp@@YGPAVCWinApp@@XZ 100586aa f   mfc90d:mfc90d.dll
 0002:000396b0       ?AfxWinTerm@@YGXXZ         100586b0 f   mfc90d:mfc90d.dll
 0002:000396b6       ?AfxWinInit@@YGHPAUHINSTANCE__@@0PADH@Z 100586b6 f   mfc90d:mfc90d.dll
 0002:000396bc       ?AfxGetThreadState@@YGPAV_AFX_THREAD_STATE@@XZ 100586bc f   mfc90d:mfc90d.dll
 0002:000396c2       ?AfxCoreInitModule@@YGXXZ  100586c2 f   mfc90d:mfc90d.dll
 0002:000396c8       ?AfxGetModuleState@@YGPAVAFX_MODULE_STATE@@XZ 100586c8 f   mfc90d:mfc90d.dll
 0002:000396ce       ??0AFX_MODULE_STATE@@QAE@HP6GJPAUHWND__@@IIJ@ZKH@Z 100586ce f   mfc90d:mfc90d.dll
 0002:000396d4       ??3CNoTrackObject@@SGXPAX@Z 100586d4 f   mfc90d:mfc90d.dll
 0002:000396da       ??1AFX_MODULE_STATE@@UAE@XZ 100586da f   mfc90d:mfc90d.dll
 0002:000396e0       ?_AfxSocketInit@@YGHPAUWSAData@@@Z 100586e0 f   mfc90d:mfc90d.dll
 0002:000396f0       __RawDllMainProxy@12       100586f0 f   mfcs90d:rawdllmainproxy.obj
 0002:000399e0       __alldiv                   100589e0 f   msvcrtd:lldiv.obj
 0002:00039ab4       __time64                   10058ab4 f   msvcrtd:MSVCR90D.dll
 0002:00039aba       __mktime64                 10058aba f   msvcrtd:MSVCR90D.dll
 0002:00039ac0       __gmtime64_s               10058ac0 f   msvcrtd:MSVCR90D.dll
 0002:00039ad0       __aullshr                  10058ad0 f   msvcrtd:ullshr.obj
 0002:00039b00       __allshl                   10058b00 f   msvcrtd:llshl.obj
 0002:00039b26       __snprintf_s               10058b26 f   msvcrtd:MSVCR90D.dll
 0002:00039b2c       __errno                    10058b2c f   msvcrtd:MSVCR90D.dll
 0002:00039b32       __CrtDbgReport             10058b32 f   msvcrtd:MSVCR90D.dll
 0002:00039b38       _wcscpy                    10058b38 f   msvcrtd:MSVCR90D.dll
 0002:00039b3e       __vsnprintf_s              10058b3e f   msvcrtd:MSVCR90D.dll
 0002:00039b44       __vsnwprintf_s             10058b44 f   msvcrtd:MSVCR90D.dll
 0002:00039b4a       __snwprintf_s              10058b4a f   msvcrtd:MSVCR90D.dll
 0002:00039b50       _wcscpy_s                  10058b50 f   msvcrtd:MSVCR90D.dll
 0002:00039b56       _wcsncpy_s                 10058b56 f   msvcrtd:MSVCR90D.dll
 0002:00039b5c       _strcpy_s                  10058b5c f   msvcrtd:MSVCR90D.dll
 0002:00039b62       _calloc                    10058b62 f   msvcrtd:MSVCR90D.dll
 0002:00039b68       _memcmp                    10058b68 f   msvcrtd:MSVCR90D.dll
 0002:00039b6e       __wcsicmp                  10058b6e f   msvcrtd:MSVCR90D.dll
 0002:00039b74       _wcslen                    10058b74 f   msvcrtd:MSVCR90D.dll
 0002:00039b7a       _LocalFileTimeToFileTime@8 10058b7a f   kernel32:KERNEL32.dll
 0002:00039b80       _MulDiv@12                 10058b80 f   kernel32:KERNEL32.dll
 0002:00039b86       _SetEvent@4                10058b86 f   kernel32:KERNEL32.dll
 0002:00039b8c       _OpenEventA@12             10058b8c f   kernel32:KERNEL32.dll
 0002:00039b92       _OutputDebugStringW@4      10058b92 f   kernel32:KERNEL32.dll
 0002:00039b98       _VirtualAlloc@16           10058b98 f   kernel32:KERNEL32.dll
 0002:00039b9e       _UnmapViewOfFile@4         10058b9e f   kernel32:KERNEL32.dll
 0002:00039ba4       _MapViewOfFile@20          10058ba4 f   kernel32:KERNEL32.dll
 0002:00039baa       _CreateFileMappingA@24     10058baa f   kernel32:KERNEL32.dll
 0002:00039bb0       _GetCurrentThread@0        10058bb0 f   kernel32:KERNEL32.dll
 0002:00039bb6       _OpenFileMappingA@12       10058bb6 f   kernel32:KERNEL32.dll
 0002:00039bbc       _InterlockedIncrement@4    10058bbc f   kernel32:KERNEL32.dll
 0002:00039bc2       _InterlockedDecrement@4    10058bc2 f   kernel32:KERNEL32.dll
 0002:00039bc8       _CopyRect@8                10058bc8 f   user32:USER32.dll
 0002:00039bce       _IsRectEmpty@4             10058bce f   user32:USER32.dll
 0002:00039bd4       _PtInRect@12               10058bd4 f   user32:USER32.dll
 0002:00039bda       _SetRect@20                10058bda f   user32:USER32.dll
 0002:00039be0       _SetRectEmpty@4            10058be0 f   user32:USER32.dll
 0002:00039be6       _EqualRect@8               10058be6 f   user32:USER32.dll
 0002:00039bec       _InflateRect@12            10058bec f   user32:USER32.dll
 0002:00039bf2       _OffsetRect@12             10058bf2 f   user32:USER32.dll
 0002:00039bf8       _IntersectRect@12          10058bf8 f   user32:USER32.dll
 0002:00039bfe       _UnionRect@12              10058bfe f   user32:USER32.dll
 0002:00039c04       _SubtractRect@12           10058c04 f   user32:USER32.dll
 0002:00039c0a       _MessageBoxA@16            10058c0a f   user32:USER32.dll
 0002:00039c10       _SetThreadToken@8          10058c10 f   advapi32:ADVAPI32.dll
 0002:00039c16       _RevertToSelf@0            10058c16 f   advapi32:ADVAPI32.dll
 0002:00039c1c       _OpenThreadToken@16        10058c1c f   advapi32:ADVAPI32.dll
 0003:00000000       ___xc_a                    10061000     msvcrtd:cinitexe.obj
 0003:000004d0       ___xc_z                    100614d0     msvcrtd:cinitexe.obj
 0003:000005d4       ___xi_a                    100615d4     msvcrtd:cinitexe.obj
 0003:000007dc       ___xi_z                    100617dc     msvcrtd:cinitexe.obj
 0003:000008fc       ??_C@_0BF@GPPHKJFN@Invalid?5DateTimeSpan?$AA@ 100618fc     AppOctetStream.obj
 0003:00000918       ??_C@_0BB@KEKMKJPM@Invalid?5DateTime?$AA@ 10061918     AppOctetStream.obj
 0003:0000092c       ?_Min@?$AtlLimits@H@ATL@@2HB 1006192c     AppOctetStream.obj
 0003:00000930       ?_Max@?$AtlLimits@H@ATL@@2HB 10061930     AppOctetStream.obj
 0003:00000934       ?_Min@?$AtlLimits@I@ATL@@2IB 10061934     AppOctetStream.obj
 0003:00000938       ?_Max@?$AtlLimits@I@ATL@@2IB 10061938     AppOctetStream.obj
 0003:0000093c       ?_Min@?$AtlLimits@J@ATL@@2JB 1006193c     AppOctetStream.obj
 0003:00000940       ?_Max@?$AtlLimits@J@ATL@@2JB 10061940     AppOctetStream.obj
 0003:00000944       ?_Min@?$AtlLimits@K@ATL@@2KB 10061944     AppOctetStream.obj
 0003:00000948       ?_Max@?$AtlLimits@K@ATL@@2KB 10061948     AppOctetStream.obj
 0003:00000950       ?_Min@?$AtlLimits@_J@ATL@@2_JB 10061950     AppOctetStream.obj
 0003:00000960       ?_Max@?$AtlLimits@_J@ATL@@2_JB 10061960     AppOctetStream.obj
 0003:00000970       ?_Min@?$AtlLimits@_K@ATL@@2_KB 10061970     AppOctetStream.obj
 0003:00000980       ?_Max@?$AtlLimits@_K@ATL@@2_KB 10061980     AppOctetStream.obj
 0003:0000098c       ?VT@?$CVarTypeInfo@D@ATL@@2GB 1006198c     AppOctetStream.obj
 0003:00000990       ?pmField@?$CVarTypeInfo@D@ATL@@2QQtagVARIANT@@DQ3@ 10061990     AppOctetStream.obj
 0003:00000994       ?VT@?$CVarTypeInfo@E@ATL@@2GB 10061994     AppOctetStream.obj
 0003:00000998       ?pmField@?$CVarTypeInfo@E@ATL@@2QQtagVARIANT@@EQ3@ 10061998     AppOctetStream.obj
 0003:0000099c       ?VT@?$CVarTypeInfo@PAD@ATL@@2GB 1006199c     AppOctetStream.obj
 0003:000009a0       ?pmField@?$CVarTypeInfo@PAD@ATL@@2QQtagVARIANT@@PADQ3@ 100619a0     AppOctetStream.obj
 0003:000009a4       ?VT@?$CVarTypeInfo@PAE@ATL@@2GB 100619a4     AppOctetStream.obj
 0003:000009a8       ?pmField@?$CVarTypeInfo@PAE@ATL@@2QQtagVARIANT@@PAEQ3@ 100619a8     AppOctetStream.obj
 0003:000009ac       ?VT@?$CVarTypeInfo@F@ATL@@2GB 100619ac     AppOctetStream.obj
 0003:000009b0       ?pmField@?$CVarTypeInfo@F@ATL@@2QQtagVARIANT@@FQ3@ 100619b0     AppOctetStream.obj
 0003:000009b4       ?VT@?$CVarTypeInfo@PAF@ATL@@2GB 100619b4     AppOctetStream.obj
 0003:000009b8       ?pmField@?$CVarTypeInfo@PAF@ATL@@2QQtagVARIANT@@PAFQ3@ 100619b8     AppOctetStream.obj
 0003:000009bc       ?VT@?$CVarTypeInfo@G@ATL@@2GB 100619bc     AppOctetStream.obj
 0003:000009c0       ?pmField@?$CVarTypeInfo@G@ATL@@2QQtagVARIANT@@GQ3@ 100619c0     AppOctetStream.obj
 0003:000009c4       ?VT@?$CVarTypeInfo@PAG@ATL@@2GB 100619c4     AppOctetStream.obj
 0003:000009c8       ?pmField@?$CVarTypeInfo@PAG@ATL@@2QQtagVARIANT@@PAGQ3@ 100619c8     AppOctetStream.obj
 0003:000009cc       ?VT@?$CVarTypeInfo@H@ATL@@2GB 100619cc     AppOctetStream.obj
 0003:000009d0       ?pmField@?$CVarTypeInfo@H@ATL@@2QQtagVARIANT@@HQ3@ 100619d0     AppOctetStream.obj
 0003:000009d4       ?VT@?$CVarTypeInfo@PAH@ATL@@2GB 100619d4     AppOctetStream.obj
 0003:000009d8       ?pmField@?$CVarTypeInfo@PAH@ATL@@2QQtagVARIANT@@PAHQ3@ 100619d8     AppOctetStream.obj
 0003:000009dc       ?VT@?$CVarTypeInfo@I@ATL@@2GB 100619dc     AppOctetStream.obj
 0003:000009e0       ?pmField@?$CVarTypeInfo@I@ATL@@2QQtagVARIANT@@IQ3@ 100619e0     AppOctetStream.obj
 0003:000009e4       ?VT@?$CVarTypeInfo@PAI@ATL@@2GB 100619e4     AppOctetStream.obj
 0003:000009e8       ?pmField@?$CVarTypeInfo@PAI@ATL@@2QQtagVARIANT@@PAIQ3@ 100619e8     AppOctetStream.obj
 0003:000009ec       ?VT@?$CVarTypeInfo@J@ATL@@2GB 100619ec     AppOctetStream.obj
 0003:000009f0       ?pmField@?$CVarTypeInfo@J@ATL@@2QQtagVARIANT@@JQ3@ 100619f0     AppOctetStream.obj
 0003:000009f4       ?VT@?$CVarTypeInfo@PAJ@ATL@@2GB 100619f4     AppOctetStream.obj
 0003:000009f8       ?pmField@?$CVarTypeInfo@PAJ@ATL@@2QQtagVARIANT@@PAJQ3@ 100619f8     AppOctetStream.obj
 0003:000009fc       ?VT@?$CVarTypeInfo@K@ATL@@2GB 100619fc     AppOctetStream.obj
 0003:00000a00       ?pmField@?$CVarTypeInfo@K@ATL@@2QQtagVARIANT@@KQ3@ 10061a00     AppOctetStream.obj
 0003:00000a04       ?VT@?$CVarTypeInfo@PAK@ATL@@2GB 10061a04     AppOctetStream.obj
 0003:00000a08       ?pmField@?$CVarTypeInfo@PAK@ATL@@2QQtagVARIANT@@PAKQ3@ 10061a08     AppOctetStream.obj
 0003:00000a0c       ?VT@?$CVarTypeInfo@_J@ATL@@2GB 10061a0c     AppOctetStream.obj
 0003:00000a10       ?pmField@?$CVarTypeInfo@_J@ATL@@2QQtagVARIANT@@_JQ3@ 10061a10     AppOctetStream.obj
 0003:00000a14       ?VT@?$CVarTypeInfo@PA_J@ATL@@2GB 10061a14     AppOctetStream.obj
 0003:00000a18       ?pmField@?$CVarTypeInfo@PA_J@ATL@@2QQtagVARIANT@@PA_JQ3@ 10061a18     AppOctetStream.obj
 0003:00000a1c       ?VT@?$CVarTypeInfo@_K@ATL@@2GB 10061a1c     AppOctetStream.obj
 0003:00000a20       ?pmField@?$CVarTypeInfo@_K@ATL@@2QQtagVARIANT@@_KQ3@ 10061a20     AppOctetStream.obj
 0003:00000a24       ?VT@?$CVarTypeInfo@PA_K@ATL@@2GB 10061a24     AppOctetStream.obj
 0003:00000a28       ?pmField@?$CVarTypeInfo@PA_K@ATL@@2QQtagVARIANT@@PA_KQ3@ 10061a28     AppOctetStream.obj
 0003:00000a2c       ?VT@?$CVarTypeInfo@M@ATL@@2GB 10061a2c     AppOctetStream.obj
 0003:00000a30       ?pmField@?$CVarTypeInfo@M@ATL@@2QQtagVARIANT@@MQ3@ 10061a30     AppOctetStream.obj
 0003:00000a34       ?VT@?$CVarTypeInfo@PAM@ATL@@2GB 10061a34     AppOctetStream.obj
 0003:00000a38       ?pmField@?$CVarTypeInfo@PAM@ATL@@2QQtagVARIANT@@PAMQ3@ 10061a38     AppOctetStream.obj
 0003:00000a3c       ?VT@?$CVarTypeInfo@N@ATL@@2GB 10061a3c     AppOctetStream.obj
 0003:00000a40       ?pmField@?$CVarTypeInfo@N@ATL@@2QQtagVARIANT@@NQ3@ 10061a40     AppOctetStream.obj
 0003:00000a44       ?VT@?$CVarTypeInfo@PAN@ATL@@2GB 10061a44     AppOctetStream.obj
 0003:00000a48       ?pmField@?$CVarTypeInfo@PAN@ATL@@2QQtagVARIANT@@PANQ3@ 10061a48     AppOctetStream.obj
 0003:00000a4c       ?VT@?$CVarTypeInfo@UtagVARIANT@@@ATL@@2GB 10061a4c     AppOctetStream.obj
 0003:00000a50       ?VT@?$CVarTypeInfo@PA_W@ATL@@2GB 10061a50     AppOctetStream.obj
 0003:00000a54       ?pmField@?$CVarTypeInfo@PA_W@ATL@@2QQtagVARIANT@@PA_WQ3@ 10061a54     AppOctetStream.obj
 0003:00000a58       ?VT@?$CVarTypeInfo@PAPA_W@ATL@@2GB 10061a58     AppOctetStream.obj
 0003:00000a5c       ?pmField@?$CVarTypeInfo@PAPA_W@ATL@@2QQtagVARIANT@@PAPA_WQ3@ 10061a5c     AppOctetStream.obj
 0003:00000a60       ?VT@?$CVarTypeInfo@PAUIUnknown@@@ATL@@2GB 10061a60     AppOctetStream.obj
 0003:00000a64       ?pmField@?$CVarTypeInfo@PAUIUnknown@@@ATL@@2QQtagVARIANT@@PAUIUnknown@@Q3@ 10061a64     AppOctetStream.obj
 0003:00000a68       ?VT@?$CVarTypeInfo@PAPAUIUnknown@@@ATL@@2GB 10061a68     AppOctetStream.obj
 0003:00000a6c       ?pmField@?$CVarTypeInfo@PAPAUIUnknown@@@ATL@@2QQtagVARIANT@@PAPAUIUnknown@@Q3@ 10061a6c     AppOctetStream.obj
 0003:00000a70       ?VT@?$CVarTypeInfo@PAUIDispatch@@@ATL@@2GB 10061a70     AppOctetStream.obj
 0003:00000a74       ?pmField@?$CVarTypeInfo@PAUIDispatch@@@ATL@@2QQtagVARIANT@@PAUIDispatch@@Q3@ 10061a74     AppOctetStream.obj
 0003:00000a78       ?VT@?$CVarTypeInfo@PAPAUIDispatch@@@ATL@@2GB 10061a78     AppOctetStream.obj
 0003:00000a7c       ?pmField@?$CVarTypeInfo@PAPAUIDispatch@@@ATL@@2QQtagVARIANT@@PAPAUIDispatch@@Q3@ 10061a7c     AppOctetStream.obj
 0003:00000a80       ?VT@?$CVarTypeInfo@TtagCY@@@ATL@@2GB 10061a80     AppOctetStream.obj
 0003:00000a84       ?pmField@?$CVarTypeInfo@TtagCY@@@ATL@@2QQtagVARIANT@@TtagCY@@Q3@ 10061a84     AppOctetStream.obj
 0003:00000a88       ?VT@?$CVarTypeInfo@PATtagCY@@@ATL@@2GB 10061a88     AppOctetStream.obj
 0003:00000a8c       ?pmField@?$CVarTypeInfo@PATtagCY@@@ATL@@2QQtagVARIANT@@PATtagCY@@Q3@ 10061a8c     AppOctetStream.obj
 0003:00000a90       ?c_bIsMFCDLLTraits@?$_MFCDLLTraitsCheck@DV?$StrTraitMFC_DLL@DV?$ChTraitsCRT@D@ATL@@@@@_CSTRING_IMPL_@ATL@@2_NB 10061a90     AppOctetStream.obj
 0003:00000a91       ?c_bIsMFCDLLTraits@?$_MFCDLLTraitsCheck@_WV?$StrTraitMFC_DLL@_WV?$ChTraitsCRT@_W@ATL@@@@@_CSTRING_IMPL_@ATL@@2_NB 10061a91     AppOctetStream.obj
 0003:00000a94       ?generic@CArchiveException@@2HB 10061a94     AppOctetStream.obj
 0003:00000a98       ?generic@CFileException@@2HB 10061a98     AppOctetStream.obj
 0003:00000aa0       ?Millisecond@CFileTime@ATL@@2_KB 10061aa0     AppOctetStream.obj
 0003:00000ab0       ?Second@CFileTime@ATL@@2_KB 10061ab0     AppOctetStream.obj
 0003:00000ac0       ?Minute@CFileTime@ATL@@2_KB 10061ac0     AppOctetStream.obj
 0003:00000ad0       ?Hour@CFileTime@ATL@@2_KB  10061ad0     AppOctetStream.obj
 0003:00000ae0       ?Day@CFileTime@ATL@@2_KB   10061ae0     AppOctetStream.obj
 0003:00000af0       ?Week@CFileTime@ATL@@2_KB  10061af0     AppOctetStream.obj
 0003:00000afc       ?szInvalidDateTime@ATL@@3QBDB 10061afc     AppOctetStream.obj
 0003:00000b00       ?szInvalidDateTimeSpan@ATL@@3QBDB 10061b00     AppOctetStream.obj
 0003:00000b04       ?CLSID_WinFormsControl@@3U_GUID@@B 10061b04     AppOctetStream.obj
 0003:00000b1c       ??_7CAppOctetStream@@6B@   10061b1c     AppOctetStream.obj
 0003:00000b34       ??_C@_02PCIJFNDE@?$AN?6?$AA@ 10061b34     AppOctetStream.obj
 0003:00000b38       ??_C@_0DB@HMJDEOPM@Content?9Disposition?3?5attachment?$DL@ 10061b38     AppOctetStream.obj
 0003:00000b74       ??_C@_0CE@HELJGHDP@Content?9Transfer?9Encoding?3?5base6@ 10061b74     AppOctetStream.obj
 0003:00000ba0       ??_C@_0BF@FOGCCDII@Content?9Type?3?5?$CFs?$CFs?$AN?6?$AA@ 10061ba0     AppOctetStream.obj
 0003:00000bb9       ??_C@_00CNPNBAHC@?$AA@     10061bb9     AppOctetStream.obj
 0003:00000bbc       ??_C@_0M@OHCFKEHI@?$DL?5file?$DN?$CFs?$CFs?$AA@ 10061bbc     AppOctetStream.obj
 0003:00000bcc       ??_C@_0BJ@JDCJMJCJ@application?1octet?9stream?$AA@ 10061bcc     AppOctetStream.obj
 0003:00000bf0       ??_7Thank_you@Define_the_symbol__ATL_MIXED@@6B@ 10061bf0     AppOctetStream.obj
 0003:00000bfc       ??_7CBase64@@6B@           10061bfc     Base64.obj
 0003:00000c10       ??_C@_0EB@NFPJKBDG@ABCDEFGHIJKLMNOPQRSTUVWXYZabcdef@ 10061c10     Base64.obj
 0003:00000c60       ??_C@_07KJLOKDKB@TypeLib?$AA@ 10061c60     CrashHandler.obj
 0003:00000c6c       ??_C@_08KEKAJNJI@Software?$AA@ 10061c6c     CrashHandler.obj
 0003:00000c78       ??_C@_06FDHFNJBJ@SYSTEM?$AA@ 10061c78     CrashHandler.obj
 0003:00000c80       ??_C@_08LOPHEHKG@SECURITY?$AA@ 10061c80     CrashHandler.obj
 0003:00000c8c       ??_C@_03DDIMFGBA@SAM?$AA@  10061c8c     CrashHandler.obj
 0003:00000c90       ??_C@_04IHBFOLAC@Mime?$AA@ 10061c90     CrashHandler.obj
 0003:00000c98       ??_C@_08PPIOJEA@Hardware?$AA@ 10061c98     CrashHandler.obj
 0003:00000ca4       ??_C@_09JKPGEJCH@Interface?$AA@ 10061ca4     CrashHandler.obj
 0003:00000cb0       ??_C@_08PICKODJL@FileType?$AA@ 10061cb0     CrashHandler.obj
 0003:00000cbc       ??_C@_0BF@HDDNNDFH@Component?5Categories?$AA@ 10061cbc     CrashHandler.obj
 0003:00000cd8       ??_C@_05GIBEAPNE@CLSID?$AA@ 10061cd8     CrashHandler.obj
 0003:00000ce0       ??_C@_05PDIKPLII@AppID?$AA@ 10061ce0     CrashHandler.obj
 0003:00000ce8       ??_C@_06JBKGCNBB@Delete?$AA@ 10061ce8     CrashHandler.obj
 0003:00000cf0       ??_C@_08KAAPDIAN@NoRemove?$AA@ 10061cf0     CrashHandler.obj
 0003:00000cfc       ??_C@_0M@DBGDLGLL@ForceRemove?$AA@ 10061cfc     CrashHandler.obj
 0003:00000d0c       ??_C@_03LAIAPFCB@Val?$AA@  10061d0c     CrashHandler.obj
 0003:00000d10       ??_C@_01HMGJMAIH@B?$AA@    10061d10     CrashHandler.obj
 0003:00000d14       ??_C@_01CKDDGHAB@D?$AA@    10061d14     CrashHandler.obj
 0003:00000d18       ??_C@_01PLPBNMEI@M?$AA@    10061d18     CrashHandler.obj
 0003:00000d1c       ??_C@_01CPLAODJH@S?$AA@    10061d1c     CrashHandler.obj
 0003:00000d20       ??_C@_0P@GHFPNOJB@bad?5allocation?$AA@ 10061d20     CrashHandler.obj
 0003:00000d34       _LIBID_MSXML2              10061d34     CrashHandler.obj
 0003:00000d48       _IID_IXMLDOMImplementation 10061d48     CrashHandler.obj
 0003:00000d5c       _IID_IXMLDOMParseError     10061d5c     CrashHandler.obj
 0003:00000d70       _IID_ISAXEntityResolver    10061d70     CrashHandler.obj
 0003:00000d84       _IID_ISAXLocator           10061d84     CrashHandler.obj
 0003:00000d98       _IID_ISAXAttributes        10061d98     CrashHandler.obj
 0003:00000dac       _IID_ISAXContentHandler    10061dac     CrashHandler.obj
 0003:00000dc0       _IID_ISAXDTDHandler        10061dc0     CrashHandler.obj
 0003:00000dd4       _IID_ISAXErrorHandler      10061dd4     CrashHandler.obj
 0003:00000de8       _IID_ISAXXMLReader         10061de8     CrashHandler.obj
 0003:00000dfc       _IID_ISAXXMLFilter         10061dfc     CrashHandler.obj
 0003:00000e10       _IID_ISAXLexicalHandler    10061e10     CrashHandler.obj
 0003:00000e24       _IID_ISAXDeclHandler       10061e24     CrashHandler.obj
 0003:00000e38       _IID_IVBSAXEntityResolver  10061e38     CrashHandler.obj
 0003:00000e4c       _IID_IVBSAXLocator         10061e4c     CrashHandler.obj
 0003:00000e60       _IID_IVBSAXAttributes      10061e60     CrashHandler.obj
 0003:00000e74       _IID_IVBSAXContentHandler  10061e74     CrashHandler.obj
 0003:00000e88       _IID_IVBSAXDTDHandler      10061e88     CrashHandler.obj
 0003:00000e9c       _IID_IVBSAXErrorHandler    10061e9c     CrashHandler.obj
 0003:00000eb0       _IID_IVBSAXXMLReader       10061eb0     CrashHandler.obj
 0003:00000ec4       _IID_IVBSAXXMLFilter       10061ec4     CrashHandler.obj
 0003:00000ed8       _IID_IVBSAXLexicalHandler  10061ed8     CrashHandler.obj
 0003:00000eec       _IID_IVBSAXDeclHandler     10061eec     CrashHandler.obj
 0003:00000f00       _IID_IMXWriter             10061f00     CrashHandler.obj
 0003:00000f14       _IID_IMXAttributes         10061f14     CrashHandler.obj
 0003:00000f28       _IID_IMXReaderControl      10061f28     CrashHandler.obj
 0003:00000f3c       _IID_ISchemaStringCollection 10061f3c     CrashHandler.obj
 0003:00000f50       _IID_IMXXMLFilter          10061f50     CrashHandler.obj
 0003:00000f64       _DIID_XMLDOMDocumentEvents 10061f64     CrashHandler.obj
 0003:00000f78       _IID_IXMLHTTPRequest       10061f78     CrashHandler.obj
 0003:00000f8c       _IID_IServerXMLHTTPRequest 10061f8c     CrashHandler.obj
 0003:00000fa0       _IID_IServerXMLHTTPRequest2 10061fa0     CrashHandler.obj
 0003:00000fb4       _IID_IMXNamespacePrefixes  10061fb4     CrashHandler.obj
 0003:00000fc8       _CLSID_DOMDocument         10061fc8     CrashHandler.obj
 0003:00000fdc       _CLSID_DOMDocument26       10061fdc     CrashHandler.obj
 0003:00000ff0       _CLSID_DOMDocument30       10061ff0     CrashHandler.obj
 0003:00001004       _CLSID_DOMDocument40       10062004     CrashHandler.obj
 0003:00001018       _CLSID_DOMDocument60       10062018     CrashHandler.obj
 0003:0000102c       _CLSID_FreeThreadedDOMDocument 1006202c     CrashHandler.obj
 0003:00001040       _CLSID_FreeThreadedDOMDocument26 10062040     CrashHandler.obj
 0003:00001054       _CLSID_FreeThreadedDOMDocument30 10062054     CrashHandler.obj
 0003:00001068       _CLSID_FreeThreadedDOMDocument40 10062068     CrashHandler.obj
 0003:0000107c       _CLSID_FreeThreadedDOMDocument60 1006207c     CrashHandler.obj
 0003:00001090       _CLSID_XMLSchemaCache      10062090     CrashHandler.obj
 0003:000010a4       _CLSID_XMLSchemaCache26    100620a4     CrashHandler.obj
 0003:000010b8       _CLSID_XMLSchemaCache30    100620b8     CrashHandler.obj
 0003:000010cc       _CLSID_XMLSchemaCache40    100620cc     CrashHandler.obj
 0003:000010e0       _CLSID_XMLSchemaCache60    100620e0     CrashHandler.obj
 0003:000010f4       _CLSID_XSLTemplate         100620f4     CrashHandler.obj
 0003:00001108       _CLSID_XSLTemplate26       10062108     CrashHandler.obj
 0003:0000111c       _CLSID_XSLTemplate30       1006211c     CrashHandler.obj
 0003:00001130       _CLSID_XSLTemplate40       10062130     CrashHandler.obj
 0003:00001144       _CLSID_XSLTemplate60       10062144     CrashHandler.obj
 0003:00001158       _CLSID_DSOControl          10062158     CrashHandler.obj
 0003:0000116c       _CLSID_DSOControl26        1006216c     CrashHandler.obj
 0003:00001180       _CLSID_DSOControl30        10062180     CrashHandler.obj
 0003:00001194       _CLSID_DSOControl40        10062194     CrashHandler.obj
 0003:000011a8       _CLSID_XMLHTTP             100621a8     CrashHandler.obj
 0003:000011bc       _CLSID_XMLHTTP26           100621bc     CrashHandler.obj
 0003:000011d0       _CLSID_XMLHTTP30           100621d0     CrashHandler.obj
 0003:000011e4       _CLSID_XMLHTTP40           100621e4     CrashHandler.obj
 0003:000011f8       _CLSID_XMLHTTP60           100621f8     CrashHandler.obj
 0003:0000120c       _CLSID_ServerXMLHTTP       1006220c     CrashHandler.obj
 0003:00001220       _CLSID_ServerXMLHTTP30     10062220     CrashHandler.obj
 0003:00001234       _CLSID_ServerXMLHTTP40     10062234     CrashHandler.obj
 0003:00001248       _CLSID_ServerXMLHTTP60     10062248     CrashHandler.obj
 0003:0000125c       _CLSID_SAXXMLReader        1006225c     CrashHandler.obj
 0003:00001270       _CLSID_SAXXMLReader30      10062270     CrashHandler.obj
 0003:00001284       _CLSID_SAXXMLReader40      10062284     CrashHandler.obj
 0003:00001298       _CLSID_SAXXMLReader60      10062298     CrashHandler.obj
 0003:000012ac       _CLSID_MXXMLWriter         100622ac     CrashHandler.obj
 0003:000012c0       _CLSID_MXXMLWriter30       100622c0     CrashHandler.obj
 0003:000012d4       _CLSID_MXXMLWriter40       100622d4     CrashHandler.obj
 0003:000012e8       _CLSID_MXXMLWriter60       100622e8     CrashHandler.obj
 0003:000012fc       _CLSID_MXHTMLWriter        100622fc     CrashHandler.obj
 0003:00001310       _CLSID_MXHTMLWriter30      10062310     CrashHandler.obj
 0003:00001324       _CLSID_MXHTMLWriter40      10062324     CrashHandler.obj
 0003:00001338       _CLSID_MXHTMLWriter60      10062338     CrashHandler.obj
 0003:0000134c       _CLSID_SAXAttributes       1006234c     CrashHandler.obj
 0003:00001360       _CLSID_SAXAttributes30     10062360     CrashHandler.obj
 0003:00001374       _CLSID_SAXAttributes40     10062374     CrashHandler.obj
 0003:00001388       _CLSID_SAXAttributes60     10062388     CrashHandler.obj
 0003:0000139c       _CLSID_MXNamespaceManager  1006239c     CrashHandler.obj
 0003:000013b0       _CLSID_MXNamespaceManager40 100623b0     CrashHandler.obj
 0003:000013c4       _CLSID_MXNamespaceManager60 100623c4     CrashHandler.obj
 0003:000013d8       _IID_IXMLDOMNode           100623d8     CrashHandler.obj
 0003:000013ec       _IID_IXMLDOMNodeList       100623ec     CrashHandler.obj
 0003:00001400       _IID_IXMLDOMNamedNodeMap   10062400     CrashHandler.obj
 0003:00001414       _IID_IXMLDOMDocumentType   10062414     CrashHandler.obj
 0003:00001428       _IID_IXMLDOMAttribute      10062428     CrashHandler.obj
 0003:0000143c       _IID_IXMLDOMElement        1006243c     CrashHandler.obj
 0003:00001450       _IID_IXMLDOMDocumentFragment 10062450     CrashHandler.obj
 0003:00001464       _IID_IXMLDOMCharacterData  10062464     CrashHandler.obj
 0003:00001478       _IID_IXMLDOMText           10062478     CrashHandler.obj
 0003:0000148c       _IID_IXMLDOMComment        1006248c     CrashHandler.obj
 0003:000014a0       _IID_IXMLDOMCDATASection   100624a0     CrashHandler.obj
 0003:000014b4       _IID_IXMLDOMProcessingInstruction 100624b4     CrashHandler.obj
 0003:000014c8       _IID_IXMLDOMEntityReference 100624c8     CrashHandler.obj
 0003:000014dc       _IID_IXMLDOMDocument       100624dc     CrashHandler.obj
 0003:000014f0       _IID_IXMLDOMSchemaCollection 100624f0     CrashHandler.obj
 0003:00001504       _IID_IXMLDOMDocument2      10062504     CrashHandler.obj
 0003:00001518       _IID_IXMLDOMDocument3      10062518     CrashHandler.obj
 0003:0000152c       _IID_IXMLDOMNotation       1006252c     CrashHandler.obj
 0003:00001540       _IID_IXMLDOMEntity         10062540     CrashHandler.obj
 0003:00001554       _IID_IXTLRuntime           10062554     CrashHandler.obj
 0003:00001568       _IID_IXMLDOMSelection      10062568     CrashHandler.obj
 0003:0000157c       _IID_IDSOControl           1006257c     CrashHandler.obj
 0003:00001590       _IID_IVBMXNamespaceManager 10062590     CrashHandler.obj
 0003:000015a4       _IID_IMXNamespaceManager   100625a4     CrashHandler.obj
 0003:000015b8       _IID_IXMLDOMParseError2    100625b8     CrashHandler.obj
 0003:000015cc       _IID_IXMLDOMParseErrorCollection 100625cc     CrashHandler.obj
 0003:000015e0       _IID_IXSLTemplate          100625e0     CrashHandler.obj
 0003:000015f4       _IID_IXSLProcessor         100625f4     CrashHandler.obj
 0003:00001608       _IID_IMXSchemaDeclHandler  10062608     CrashHandler.obj
 0003:0000161c       _IID_ISchemaItem           1006261c     CrashHandler.obj
 0003:00001630       _IID_ISchemaParticle       10062630     CrashHandler.obj
 0003:00001644       _IID_ISchemaItemCollection 10062644     CrashHandler.obj
 0003:00001658       _IID_ISchema               10062658     CrashHandler.obj
 0003:0000166c       _IID_ISchemaType           1006266c     CrashHandler.obj
 0003:00001680       _IID_ISchemaAny            10062680     CrashHandler.obj
 0003:00001694       _IID_ISchemaModelGroup     10062694     CrashHandler.obj
 0003:000016a8       _IID_ISchemaComplexType    100626a8     CrashHandler.obj
 0003:000016bc       _IID_ISchemaElement        100626bc     CrashHandler.obj
 0003:000016d0       _IID_IXMLDOMSchemaCollection2 100626d0     CrashHandler.obj
 0003:000016e4       _IID_ISchemaAttribute      100626e4     CrashHandler.obj
 0003:000016f8       _IID_ISchemaAttributeGroup 100626f8     CrashHandler.obj
 0003:0000170c       _IID_ISchemaIdentityConstraint 1006270c     CrashHandler.obj
 0003:00001720       _IID_ISchemaNotation       10062720     CrashHandler.obj
 0003:00001733       ?_Value@?$_Is_swap_move@U_Swap_move_tag@std@@@std@@2_NB 10062733     CrashHandler.obj
 0003:00001734       ?value@?$integral_constant@_N$0A@@tr1@std@@2_NB 10062734     CrashHandler.obj
 0003:00001735       ?value@?$integral_constant@_N$00@tr1@std@@2_NB 10062735     CrashHandler.obj
 0003:00001738       ?collate@?$_Locbase@H@std@@2HB 10062738     CrashHandler.obj
 0003:0000173c       ?ctype@?$_Locbase@H@std@@2HB 1006273c     CrashHandler.obj
 0003:00001740       ?monetary@?$_Locbase@H@std@@2HB 10062740     CrashHandler.obj
 0003:00001744       ?numeric@?$_Locbase@H@std@@2HB 10062744     CrashHandler.obj
 0003:00001748       ?time@?$_Locbase@H@std@@2HB 10062748     CrashHandler.obj
 0003:0000174c       ?messages@?$_Locbase@H@std@@2HB 1006274c     CrashHandler.obj
 0003:00001750       ?all@?$_Locbase@H@std@@2HB 10062750     CrashHandler.obj
 0003:00001754       ?none@?$_Locbase@H@std@@2HB 10062754     CrashHandler.obj
 0003:00001758       ?skipws@?$_Iosb@H@std@@2W4_Fmtflags@12@B 10062758     CrashHandler.obj
 0003:0000175c       ?unitbuf@?$_Iosb@H@std@@2W4_Fmtflags@12@B 1006275c     CrashHandler.obj
 0003:00001760       ?uppercase@?$_Iosb@H@std@@2W4_Fmtflags@12@B 10062760     CrashHandler.obj
 0003:00001764       ?showbase@?$_Iosb@H@std@@2W4_Fmtflags@12@B 10062764     CrashHandler.obj
 0003:00001768       ?showpoint@?$_Iosb@H@std@@2W4_Fmtflags@12@B 10062768     CrashHandler.obj
 0003:0000176c       ?showpos@?$_Iosb@H@std@@2W4_Fmtflags@12@B 1006276c     CrashHandler.obj
 0003:00001770       ?left@?$_Iosb@H@std@@2W4_Fmtflags@12@B 10062770     CrashHandler.obj
 0003:00001774       ?right@?$_Iosb@H@std@@2W4_Fmtflags@12@B 10062774     CrashHandler.obj
 0003:00001778       ?internal@?$_Iosb@H@std@@2W4_Fmtflags@12@B 10062778     CrashHandler.obj
 0003:0000177c       ?dec@?$_Iosb@H@std@@2W4_Fmtflags@12@B 1006277c     CrashHandler.obj
 0003:00001780       ?oct@?$_Iosb@H@std@@2W4_Fmtflags@12@B 10062780     CrashHandler.obj
 0003:00001784       ?hex@?$_Iosb@H@std@@2W4_Fmtflags@12@B 10062784     CrashHandler.obj
 0003:00001788       ?scientific@?$_Iosb@H@std@@2W4_Fmtflags@12@B 10062788     CrashHandler.obj
 0003:0000178c       ?fixed@?$_Iosb@H@std@@2W4_Fmtflags@12@B 1006278c     CrashHandler.obj
 0003:00001790       ?hexfloat@?$_Iosb@H@std@@2W4_Fmtflags@12@B 10062790     CrashHandler.obj
 0003:00001794       ?boolalpha@?$_Iosb@H@std@@2W4_Fmtflags@12@B 10062794     CrashHandler.obj
 0003:00001798       ?_Stdio@?$_Iosb@H@std@@2W4_Fmtflags@12@B 10062798     CrashHandler.obj
 0003:0000179c       ?adjustfield@?$_Iosb@H@std@@2W4_Fmtflags@12@B 1006279c     CrashHandler.obj
 0003:000017a0       ?basefield@?$_Iosb@H@std@@2W4_Fmtflags@12@B 100627a0     CrashHandler.obj
 0003:000017a4       ?floatfield@?$_Iosb@H@std@@2W4_Fmtflags@12@B 100627a4     CrashHandler.obj
 0003:000017a8       ?goodbit@?$_Iosb@H@std@@2W4_Iostate@12@B 100627a8     CrashHandler.obj
 0003:000017ac       ?eofbit@?$_Iosb@H@std@@2W4_Iostate@12@B 100627ac     CrashHandler.obj
 0003:000017b0       ?failbit@?$_Iosb@H@std@@2W4_Iostate@12@B 100627b0     CrashHandler.obj
 0003:000017b4       ?badbit@?$_Iosb@H@std@@2W4_Iostate@12@B 100627b4     CrashHandler.obj
 0003:000017b8       ?_Hardfail@?$_Iosb@H@std@@2W4_Iostate@12@B 100627b8     CrashHandler.obj
 0003:000017bc       ?in@?$_Iosb@H@std@@2W4_Openmode@12@B 100627bc     CrashHandler.obj
 0003:000017c0       ?out@?$_Iosb@H@std@@2W4_Openmode@12@B 100627c0     CrashHandler.obj
 0003:000017c4       ?ate@?$_Iosb@H@std@@2W4_Openmode@12@B 100627c4     CrashHandler.obj
 0003:000017c8       ?app@?$_Iosb@H@std@@2W4_Openmode@12@B 100627c8     CrashHandler.obj
 0003:000017cc       ?trunc@?$_Iosb@H@std@@2W4_Openmode@12@B 100627cc     CrashHandler.obj
 0003:000017d0       ?_Nocreate@?$_Iosb@H@std@@2W4_Openmode@12@B 100627d0     CrashHandler.obj
 0003:000017d4       ?_Noreplace@?$_Iosb@H@std@@2W4_Openmode@12@B 100627d4     CrashHandler.obj
 0003:000017d8       ?binary@?$_Iosb@H@std@@2W4_Openmode@12@B 100627d8     CrashHandler.obj
 0003:000017dc       ?beg@?$_Iosb@H@std@@2W4_Seekdir@12@B 100627dc     CrashHandler.obj
 0003:000017e0       ?cur@?$_Iosb@H@std@@2W4_Seekdir@12@B 100627e0     CrashHandler.obj
 0003:000017e4       ?end@?$_Iosb@H@std@@2W4_Seekdir@12@B 100627e4     CrashHandler.obj
 0003:000017e8       ?kMillisecondsPerSecond@Time@@2_JB 100627e8     CrashHandler.obj
 0003:000017f8       ?kMicrosecondsPerMillisecond@Time@@2_JB 100627f8     CrashHandler.obj
 0003:00001808       ?kMicrosecondsPerSecond@Time@@2_JB 10062808     CrashHandler.obj
 0003:00001818       ?kMicrosecondsPerMinute@Time@@2_JB 10062818     CrashHandler.obj
 0003:00001828       ?kMicrosecondsPerHour@Time@@2_JB 10062828     CrashHandler.obj
 0003:00001838       ?kMicrosecondsPerDay@Time@@2_JB 10062838     CrashHandler.obj
 0003:00001848       ?kMicrosecondsPerWeek@Time@@2_JB 10062848     CrashHandler.obj
 0003:00001858       ?kNanosecondsPerMicrosecond@Time@@2_JB 10062858     CrashHandler.obj
 0003:00001868       ?kNanosecondsPerSecond@Time@@2_JB 10062868     CrashHandler.obj
 0003:00001874       ?value@integral_c_tag@mpl@boost@@2HB 10062874     CrashHandler.obj
 0003:00001878       ?value@?$bool_@$00@mpl@boost@@2_NB 10062878     CrashHandler.obj
 0003:00001879       ?value@?$bool_@$0A@@mpl@boost@@2_NB 10062879     CrashHandler.obj
 0003:0000187a       ?value@?$ice_or@$0A@$0A@$0A@$0A@$0A@$0A@$0A@@type_traits@boost@@2_NB 1006287a     CrashHandler.obj
 0003:0000187b       ?value@?$ice_and@$00$00$00$00$00$00$00@type_traits@boost@@2_NB 1006287b     CrashHandler.obj
 0003:0000187c       ?value@?$ice_not@$00@type_traits@boost@@2_NB 1006287c     CrashHandler.obj
 0003:0000187d       ?value@?$is_convertible_impl@XX@detail@boost@@2_NB 1006287d     CrashHandler.obj
 0003:0000187e       ?value@?$is_convertible_impl@X$$CBX@detail@boost@@2_NB 1006287e     CrashHandler.obj
 0003:0000187f       ?value@?$is_convertible_impl@X$$CCX@detail@boost@@2_NB 1006287f     CrashHandler.obj
 0003:00001880       ?value@?$is_convertible_impl@X$$CDX@detail@boost@@2_NB 10062880     CrashHandler.obj
 0003:00001881       ?value@?$is_convertible_impl@$$CBXX@detail@boost@@2_NB 10062881     CrashHandler.obj
 0003:00001882       ?value@?$is_convertible_impl@$$CBX$$CBX@detail@boost@@2_NB 10062882     CrashHandler.obj
 0003:00001883       ?value@?$is_convertible_impl@$$CBX$$CCX@detail@boost@@2_NB 10062883     CrashHandler.obj
 0003:00001884       ?value@?$is_convertible_impl@$$CBX$$CDX@detail@boost@@2_NB 10062884     CrashHandler.obj
 0003:00001885       ?value@?$is_convertible_impl@$$CCXX@detail@boost@@2_NB 10062885     CrashHandler.obj
 0003:00001886       ?value@?$is_convertible_impl@$$CCX$$CBX@detail@boost@@2_NB 10062886     CrashHandler.obj
 0003:00001887       ?value@?$is_convertible_impl@$$CCX$$CCX@detail@boost@@2_NB 10062887     CrashHandler.obj
 0003:00001888       ?value@?$is_convertible_impl@$$CCX$$CDX@detail@boost@@2_NB 10062888     CrashHandler.obj
 0003:00001889       ?value@?$is_convertible_impl@$$CDXX@detail@boost@@2_NB 10062889     CrashHandler.obj
 0003:0000188a       ?value@?$is_convertible_impl@$$CDX$$CBX@detail@boost@@2_NB 1006288a     CrashHandler.obj
 0003:0000188b       ?value@?$is_convertible_impl@$$CDX$$CCX@detail@boost@@2_NB 1006288b     CrashHandler.obj
 0003:0000188c       ?value@?$is_convertible_impl@$$CDX$$CDX@detail@boost@@2_NB 1006288c     CrashHandler.obj
 0003:0000188d       ?value@?$is_member_function_pointer_impl@X@detail@boost@@2_NB 1006288d     CrashHandler.obj
 0003:0000188e       ?value@?$is_member_function_pointer_impl@$$CBX@detail@boost@@2_NB 1006288e     CrashHandler.obj
 0003:0000188f       ?value@?$is_member_function_pointer_impl@$$CCX@detail@boost@@2_NB 1006288f     CrashHandler.obj
 0003:00001890       ?value@?$is_member_function_pointer_impl@$$CDX@detail@boost@@2_NB 10062890     CrashHandler.obj
 0003:00001894       ?value@?$arg@$0?0@mpl@boost@@2HB 10062894     CrashHandler.obj
 0003:00001898       ?value@?$arg@$00@mpl@boost@@2HB 10062898     CrashHandler.obj
 0003:0000189c       ?value@?$arg@$01@mpl@boost@@2HB 1006289c     CrashHandler.obj
 0003:000018a0       ?value@?$arg@$02@mpl@boost@@2HB 100628a0     CrashHandler.obj
 0003:000018a4       ?value@?$arg@$03@mpl@boost@@2HB 100628a4     CrashHandler.obj
 0003:000018a8       ?value@?$arg@$04@mpl@boost@@2HB 100628a8     CrashHandler.obj
 0003:000018ac       ?value@?$is_scalar_impl@X@detail@boost@@2_NB 100628ac     CrashHandler.obj
 0003:000018ad       ?value@?$is_scalar_impl@$$CBX@detail@boost@@2_NB 100628ad     CrashHandler.obj
 0003:000018ae       ?value@?$is_scalar_impl@$$CCX@detail@boost@@2_NB 100628ae     CrashHandler.obj
 0003:000018af       ?value@?$is_scalar_impl@$$CDX@detail@boost@@2_NB 100628af     CrashHandler.obj
 0003:000018b0       ?value@?$is_pod_impl@X@detail@boost@@2_NB 100628b0     CrashHandler.obj
 0003:000018b1       ?value@?$is_pod_impl@$$CBX@detail@boost@@2_NB 100628b1     CrashHandler.obj
 0003:000018b2       ?value@?$is_pod_impl@$$CCX@detail@boost@@2_NB 100628b2     CrashHandler.obj
 0003:000018b3       ?value@?$is_pod_impl@$$CDX@detail@boost@@2_NB 100628b3     CrashHandler.obj
 0003:000018b4       ?value@?$is_empty_impl@X@detail@boost@@2_NB 100628b4     CrashHandler.obj
 0003:000018b5       ?value@?$is_empty_impl@$$CBX@detail@boost@@2_NB 100628b5     CrashHandler.obj
 0003:000018b6       ?value@?$is_empty_impl@$$CCX@detail@boost@@2_NB 100628b6     CrashHandler.obj
 0003:000018b7       ?value@?$is_empty_impl@$$CDX@detail@boost@@2_NB 100628b7     CrashHandler.obj
 0003:000018b8       _LIBID_ATLLib              100628b8     CrashHandler.obj
 0003:000018cc       _CLSID_Registrar           100628cc     CrashHandler.obj
 0003:000018e0       _IID_IRegistrar            100628e0     CrashHandler.obj
 0003:000018f4       _IID_IAxWinHostWindow      100628f4     CrashHandler.obj
 0003:00001908       _IID_IAxWinAmbientDispatch 10062908     CrashHandler.obj
 0003:0000191c       _IID_IInternalConnection   1006291c     CrashHandler.obj
 0003:00001930       _IID_IDocHostUIHandlerDispatch 10062930     CrashHandler.obj
 0003:00001944       _IID_IAxWinHostWindowLic   10062944     CrashHandler.obj
 0003:00001958       _IID_IAxWinAmbientDispatchEx 10062958     CrashHandler.obj
 0003:00001994       ?MAX_VALUE@CRegParser@ATL@@1HB 10062994     CrashHandler.obj
 0003:00001998       ?MAX_TYPE@CRegParser@ATL@@1HB 10062998     CrashHandler.obj
 0003:0000199c       ?rgszNeverDelete@CRegParser@ATL@@1QBQBDB 1006299c     CrashHandler.obj
 0003:000019d8       ?cbNeverDelete@CRegParser@ATL@@1HB 100629d8     CrashHandler.obj
 0003:000019dc       ??_C@_01LFCBOECM@?4?$AA@   100629dc     CrashHandler.obj
 0003:000019e0       ??_C@_02DPKJAMEF@?$CFd?$AA@ 100629e0     CrashHandler.obj
 0003:000019e4       ??_C@_02HAOIJKIC@?$CFc?$AA@ 100629e4     CrashHandler.obj
 0003:000019e8       ??_C@_02NJNOFBBI@?$CFx?$AA@ 100629e8     CrashHandler.obj
 0003:000019ec       ??_C@_01OHGJGJJP@?$FL?$AA@ 100629ec     CrashHandler.obj
 0003:000019f0       ??_C@_01IHBHIGKO@?0?$AA@   100629f0     CrashHandler.obj
 0003:000019f4       ??_C@_03BFOLIMEF@?$FN?$AN?6?$AA@ 100629f4     CrashHandler.obj
 0003:000019f8       ??_C@_0M@FBGDBGKH@?$CF2d?3?$CF2d?3?$CF3d?$AA@ 100629f8     CrashHandler.obj
 0003:00001a08       ??_C@_1DC@POOIKBAO@?$AAI?$AAT?$AAE?$AAR?$AAA?$AAT?$AAO?$AAR?$AA?5?$AAL?$AAI?$AAS?$AAT?$AA?5?$AAC?$AAO?$AAR?$AAR?$AAU?$AAP?$AAT?$AAE?$AAD?$AA?$CB?$AA?$AA@ 10062a08     CrashHandler.obj
 0003:00001a48       ??_C@_1IC@GIDGFDBF@?$AAd?$AA?3?$AA?2?$AAp?$AAr?$AAo?$AAg?$AAr?$AAa?$AAm?$AA?5?$AAf?$AAi?$AAl?$AAe?$AAs?$AA?2?$AAm?$AAi?$AAc?$AAr?$AAo?$AAs?$AAo?$AAf?$AAt?$AA?5?$AAv?$AAi?$AAs?$AAu?$AAa@ 10062a48     CrashHandler.obj
 0003:00001ae8       ??_C@_1KA@COOPJNPC@?$AAe?$AA?3?$AA?2?$AAc?$AAl?$AAi?$AAe?$AAn?$AAt?$AA?2?$AAl?$AAi?$AAv?$AAe?$AAs?$AAh?$AAo?$AAw?$AA?2?$AAs?$AAr?$AAc?$AA?2?$AAe?$AAr?$AAr?$AAo?$AAr?$AAr?$AAe?$AAp?$AAo@ 10062ae8     CrashHandler.obj
 0003:00001ba8       ??_C@_1DC@NDKLHGAH@?$AA?$CI?$AA?$CI?$AA?$CI?$AAH?$AAR?$AAE?$AAS?$AAU?$AAL?$AAT?$AA?$CJ?$AA?$CI?$AAh?$AAR?$AAe?$AAs?$AA?$CJ?$AA?$CJ?$AA?5?$AA?$DO?$AA?$DN?$AA?5?$AA0?$AA?$CJ?$AA?$AA@ 10062ba8     CrashHandler.obj
 0003:00001be8       ??_7CCrashHandler@@6B@     10062be8     CrashHandler.obj
 0003:00001bf0       ??_C@_07NGFJPNPN@Version?$AA@ 10062bf0     CrashHandler.obj
 0003:00001bfc       ??_C@_0CF@OPMOAOKG@SOFTWARE?2Microsoft?2Internet?5Expl@ 10062bfc     CrashHandler.obj
 0003:00001c28       ??_C@_1BG@OMKLFNDM@?$AAl?$AAR?$AAe?$AAs?$AA?5?$AA?$DN?$AA?$DN?$AA?5?$AA0?$AAL?$AA?$AA@ 10062c28     CrashHandler.obj
 0003:00001c48       ??_C@_1JC@DHICLOID@?$AAd?$AA?3?$AA?2?$AAp?$AAr?$AAo?$AAg?$AAr?$AAa?$AAm?$AA?5?$AAf?$AAi?$AAl?$AAe?$AAs?$AA?2?$AAm?$AAi?$AAc?$AAr?$AAo?$AAs?$AAo?$AAf?$AAt?$AA?5?$AAv?$AAi?$AAs?$AAu?$AAa@ 10062c48     CrashHandler.obj
 0003:00001cf8       ??_C@_1CA@JAHJEEHI@?$AAh?$AAK?$AAe?$AAy?$AAP?$AAa?$AAr?$AAe?$AAn?$AAt?$AA?5?$AA?$CB?$AA?$DN?$AA?5?$AA0?$AA?$AA@ 10062cf8     CrashHandler.obj
 0003:00001d20       ??_C@_1BK@NNCNHJFG@?$AAp?$AAn?$AAC?$AAh?$AAa?$AAr?$AAs?$AA?5?$AA?$CB?$AA?$DN?$AA?5?$AA0?$AA?$AA@ 10062d20     CrashHandler.obj
 0003:00001d40       ??_C@_1BI@KCHMLGAI@?$AAm?$AA_?$AAh?$AAK?$AAe?$AAy?$AA?5?$AA?$CB?$AA?$DN?$AA?5?$AA0?$AA?$AA@ 10062d40     CrashHandler.obj
 0003:00001d5c       ??_C@_0BD@OMBEIMGH@?$CFs179_?$CFs_?$CFu_?$CFs?4zip?$AA@ 10062d5c     CrashHandler.obj
 0003:00001d74       ??_C@_0M@PBAFAONK@VersionName?$AA@ 10062d74     CrashHandler.obj
 0003:00001d84       ??_C@_0BG@IJDODAD@config?2CurVersion?4ini?$AA@ 10062d84     CrashHandler.obj
 0003:00001da0       ??_C@_0BI@OMMBINAI@?$CF4d?$CF02d?$CF02d?$CF02d?$CF02d?$CF02d?$AA@ 10062da0     CrashHandler.obj
 0003:00001dc0       ??_C@_0FA@HHCDNCHE@e?3?2client?2liveshow?2src?2errorrepo@ 10062dc0     CrashHandler.obj
 0003:00001e20       ??_C@_0CM@NIEKPN@http?3?1?1interface?4179?4com?1user?1us@ 10062e20     CrashHandler.obj
 0003:00001e54       ??_C@_08BABJIOEM@filename?$AA@ 10062e54     CrashHandler.obj
 0003:00001e60       ??_C@_04LIFAFMCE@?$FL?$CFs?$FN?$AA@ 10062e60     CrashHandler.obj
 0003:00001e68       ??_C@_0BF@JOMIFGAM@?$FL?$CFs?5?$CFd?0?$CFd?0?$CFd?0?$CFs?$FN?$FL?$CFs?$FN?$AA@ 10062e68     CrashHandler.obj
 0003:00001e84       ??_C@_04KABGPJGB@Win8?$AA@ 10062e84     CrashHandler.obj
 0003:00001e8c       ??_C@_04CHIOOFKO@Win7?$AA@ 10062e8c     CrashHandler.obj
 0003:00001e94       ??_C@_05FGFMDFJC@Vista?$AA@ 10062e94     CrashHandler.obj
 0003:00001e9c       ??_C@_07BCCECOLC@Win2003?$AA@ 10062e9c     CrashHandler.obj
 0003:00001ea8       ??_C@_05MIHJNBED@WinXP?$AA@ 10062ea8     CrashHandler.obj
 0003:00001eb0       ??_C@_07DJAJHNHB@Win2000?$AA@ 10062eb0     CrashHandler.obj
 0003:00001ebc       ??_C@_08OHKLBDEG@unknown?5?$AA@ 10062ebc     CrashHandler.obj
 0003:00001ec8       ??_C@_0EN@HAPECMGM@?$FL?$CFd?4?$CFd?4?$CFd?4?$CFd?0?$CFd?$FN?$AN?6?$AN?6?$CFs?5?$AN?6?$DN?$DN?$DN?$DN?$DN?$DN?$DN@ 10062ec8     CrashHandler.obj
 0003:00001f24       ??_C@_0M@BMPELGMP@Jun?5?56?52014?$AA@ 10062f24     CrashHandler.obj
 0003:00001f38       ??_C@_1EM@MHOKKPFH@?$AAm?$AAa?$AAp?$AA?1?$AAs?$AAe?$AAt?$AA?5?$AAi?$AAn?$AAs?$AAe?$AAr?$AAt?$AA?5?$AAi?$AAt?$AAe?$AAr?$AAa?$AAt?$AAo?$AAr?$AA?5?$AAo?$AAu?$AAt?$AAs?$AAi?$AAd?$AAe?$AA?5@ 10062f38     CrashHandler.obj
 0003:00001f98       ??_C@_1HM@OCJGHAGC@?$AAd?$AA?3?$AA?2?$AAp?$AAr?$AAo?$AAg?$AAr?$AAa?$AAm?$AA?5?$AAf?$AAi?$AAl?$AAe?$AAs?$AA?2?$AAm?$AAi?$AAc?$AAr?$AAo?$AAs?$AAo?$AAf?$AAt?$AA?5?$AAv?$AAi?$AAs?$AAu?$AAa@ 10062f98     CrashHandler.obj
 0003:00002030       ??_C@_1JK@GIADLGCO@?$AAd?$AA?3?$AA?2?$AAp?$AAr?$AAo?$AAg?$AAr?$AAa?$AAm?$AA?5?$AAf?$AAi?$AAl?$AAe?$AAs?$AA?2?$AAm?$AAi?$AAc?$AAr?$AAo?$AAs?$AAo?$AAf?$AAt?$AA?5?$AAv?$AAi?$AAs?$AAu?$AAa@ 10063030     CrashHandler.obj
 0003:000020e8       ??_C@_1EA@JHMKKLFC@?$AAn?$AAI?$AAn?$AAd?$AAe?$AAx?$AA?5?$AA?$DO?$AA?$DN?$AA?5?$AA0?$AA?5?$AA?$CG?$AA?$CG?$AA?5?$AAn?$AAI?$AAn?$AAd?$AAe?$AAx?$AA?5?$AA?$DM?$AA?5?$AAm?$AA_?$AAn?$AAS?$AAi?$AAz?$AAe?$AA?$AA@ 100630e8     CrashHandler.obj
 0003:00002134       ??_C@_1BO@MEPPHOO@?$AA?$CC?$AAo?$AAu?$AAt?$AA?5?$AAo?$AAf?$AA?5?$AAr?$AAa?$AAn?$AAg?$AAe?$AA?$CC?$AA?$AA@ 10063134     CrashHandler.obj
 0003:00002158       ??_C@_1MA@OJMAEBFO@?$AAs?$AAt?$AAd?$AA?3?$AA?3?$AAl?$AAi?$AAs?$AAt?$AA?$DM?$AAc?$AAl?$AAa?$AAs?$AAs?$AA?5?$AAD?$AAu?$AAm?$AAp?$AAN?$AAo?$AAd?$AAe?$AA?0?$AAc?$AAl?$AAa?$AAs?$AAs?$AA?5?$AAs@ 10063158     CrashHandler.obj
 0003:00002240       ??_C@_1FG@CMLDHNON@?$AA?$CI?$AA?$CC?$AAS?$AAt?$AAa?$AAn?$AAd?$AAa?$AAr?$AAd?$AA?5?$AAC?$AA?$CL?$AA?$CL?$AA?5?$AAL?$AAi?$AAb?$AAr?$AAa?$AAr?$AAi?$AAe?$AAs?$AA?5?$AAO?$AAu?$AAt?$AA?5?$AAo?$AAf?$AA?5@ 10063240     CrashHandler.obj
 0003:000022a8       ??_C@_1EC@HILJLMMC@?$AAl?$AAi?$AAs?$AAt?$AA?5?$AAi?$AAt?$AAe?$AAr?$AAa?$AAt?$AAo?$AAr?$AA?5?$AAn?$AAo?$AAt?$AA?5?$AAd?$AAe?$AAr?$AAe?$AAf?$AAe?$AAr?$AAe?$AAn?$AAc?$AAa?$AAb?$AAl?$AAe@ 100632a8     CrashHandler.obj
 0003:000022f8       ??_C@_1HK@EMPDDBKI@?$AAd?$AA?3?$AA?2?$AAp?$AAr?$AAo?$AAg?$AAr?$AAa?$AAm?$AA?5?$AAf?$AAi?$AAl?$AAe?$AAs?$AA?2?$AAm?$AAi?$AAc?$AAr?$AAo?$AAs?$AAo?$AAf?$AAt?$AA?5?$AAv?$AAi?$AAs?$AAu?$AAa@ 100632f8     CrashHandler.obj
 0003:00002390       ??_C@_1MC@JJIMBDIG@?$AAs?$AAt?$AAd?$AA?3?$AA?3?$AAl?$AAi?$AAs?$AAt?$AA?$DM?$AAc?$AAl?$AAa?$AAs?$AAs?$AA?5?$AAD?$AAu?$AAm?$AAp?$AAN?$AAo?$AAd?$AAe?$AA?0?$AAc?$AAl?$AAa?$AAs?$AAs?$AA?5?$AAs@ 10063390     CrashHandler.obj
 0003:00002478       ??_C@_1EA@DOGAGKDH@?$AAl?$AAi?$AAs?$AAt?$AA?5?$AAi?$AAt?$AAe?$AAr?$AAa?$AAt?$AAo?$AAr?$AA?5?$AAn?$AAo?$AAt?$AA?5?$AAi?$AAn?$AAc?$AAr?$AAe?$AAm?$AAe?$AAn?$AAt?$AAa?$AAb?$AAl?$AAe?$AA?$AA@ 10063478     CrashHandler.obj
 0003:000024c8       ??_C@_1EGC@INEMMEOE@?$AAs?$AAt?$AAd?$AA?3?$AA?3?$AA_?$AAT?$AAr?$AAe?$AAe?$AA?$DM?$AAc?$AAl?$AAa?$AAs?$AAs?$AA?5?$AAs?$AAt?$AAd?$AA?3?$AA?3?$AA_?$AAT?$AAm?$AAa?$AAp?$AA_?$AAt?$AAr?$AAa?$AAi@ 100634c8     CrashHandler.obj
 0003:00002a10       ??_C@_1EI@FHEHNNNM@?$AAm?$AAa?$AAp?$AA?1?$AAs?$AAe?$AAt?$AA?5?$AAi?$AAt?$AAe?$AAr?$AAa?$AAt?$AAo?$AAr?$AA?5?$AAn?$AAo?$AAt?$AA?5?$AAd?$AAe?$AAr?$AAe?$AAf?$AAe?$AAr?$AAe?$AAn?$AAc?$AAa@ 10063a10     CrashHandler.obj
 0003:00002a68       ??_C@_1CG@JNLFBNGN@?$AA?$CC?$AAi?$AAn?$AAv?$AAa?$AAl?$AAi?$AAd?$AA?5?$AAa?$AAr?$AAg?$AAu?$AAm?$AAe?$AAn?$AAt?$AA?$CC?$AA?$AA@ 10063a68     CrashHandler.obj
 0003:00002a98       ??_C@_1EGE@LKIJKPFC@?$AAs?$AAt?$AAd?$AA?3?$AA?3?$AA_?$AAT?$AAr?$AAe?$AAe?$AA?$DM?$AAc?$AAl?$AAa?$AAs?$AAs?$AA?5?$AAs?$AAt?$AAd?$AA?3?$AA?3?$AA_?$AAT?$AAm?$AAa?$AAp?$AA_?$AAt?$AAr?$AAa?$AAi@ 10063a98     CrashHandler.obj
 0003:00002fe0       ??_C@_1FO@OCPOOAIA@?$AA?$CI?$AA?$CC?$AAS?$AAt?$AAa?$AAn?$AAd?$AAa?$AAr?$AAd?$AA?5?$AAC?$AA?$CL?$AA?$CL?$AA?5?$AAL?$AAi?$AAb?$AAr?$AAa?$AAr?$AAi?$AAe?$AAs?$AA?5?$AAI?$AAn?$AAv?$AAa?$AAl?$AAi?$AAd@ 10063fe0     CrashHandler.obj
 0003:00003050       ??_C@_1DO@CFEEPGGJ@?$AAm?$AAa?$AAp?$AA?1?$AAs?$AAe?$AAt?$AA?5?$AAi?$AAt?$AAe?$AAr?$AAa?$AAt?$AAo?$AAr?$AAs?$AA?5?$AAi?$AAn?$AAc?$AAo?$AAm?$AAp?$AAa?$AAt?$AAi?$AAb?$AAl?$AAe?$AA?$AA@ 10064050     CrashHandler.obj
 0003:0000309c       ??_C@_0BE@JONHPENG@map?1set?$DMT?$DO?5too?5long?$AA@ 1006409c     CrashHandler.obj
 0003:000030b8       ??_7length_error@std@@6B@  100640b8     CrashHandler.obj
 0003:000030c8       ??_7logic_error@std@@6B@   100640c8     CrashHandler.obj
 0003:000030d8       ??_C@_1LK@BDJBNNM@?$AAs?$AAt?$AAd?$AA?3?$AA?3?$AAl?$AAi?$AAs?$AAt?$AA?$DM?$AAc?$AAl?$AAa?$AAs?$AAs?$AA?5?$AAD?$AAu?$AAm?$AAp?$AAN?$AAo?$AAd?$AAe?$AA?0?$AAc?$AAl?$AAa?$AAs?$AAs?$AA?5?$AAs@ 100640d8     CrashHandler.obj
 0003:000031b8       ??_C@_1DI@MDELDGPI@?$AAl?$AAi?$AAs?$AAt?$AA?5?$AAi?$AAt?$AAe?$AAr?$AAa?$AAt?$AAo?$AAr?$AAs?$AA?5?$AAi?$AAn?$AAc?$AAo?$AAm?$AAp?$AAa?$AAt?$AAi?$AAb?$AAl?$AAe?$AA?$AA@ 100641b8     CrashHandler.obj
 0003:00003200       ??_C@_1EK@PPDBPCAN@?$AAm?$AAa?$AAp?$AA?1?$AAs?$AAe?$AAt?$AA?5?$AAe?$AAr?$AAa?$AAs?$AAe?$AA?5?$AAi?$AAt?$AAe?$AAr?$AAa?$AAt?$AAo?$AAr?$AA?5?$AAo?$AAu?$AAt?$AAs?$AAi?$AAd?$AAe?$AA?5?$AAr@ 10064200     CrashHandler.obj
 0003:00003258       ??_C@_1EFG@OGAMABCK@?$AAs?$AAt?$AAd?$AA?3?$AA?3?$AA_?$AAT?$AAr?$AAe?$AAe?$AA?$DM?$AAc?$AAl?$AAa?$AAs?$AAs?$AA?5?$AAs?$AAt?$AAd?$AA?3?$AA?3?$AA_?$AAT?$AAm?$AAa?$AAp?$AA_?$AAt?$AAr?$AAa?$AAi@ 10064258     CrashHandler.obj
 0003:00003790       ??_C@_1EG@OKCGOALM@?$AAm?$AAa?$AAp?$AA?1?$AAs?$AAe?$AAt?$AA?5?$AAi?$AAt?$AAe?$AAr?$AAa?$AAt?$AAo?$AAr?$AA?5?$AAn?$AAo?$AAt?$AA?5?$AAd?$AAe?$AAc?$AAr?$AAe?$AAm?$AAe?$AAn?$AAt?$AAa?$AAb@ 10064790     CrashHandler.obj
 0003:000037e8       ??_C@_1EFG@BHMOOEDI@?$AAs?$AAt?$AAd?$AA?3?$AA?3?$AA_?$AAT?$AAr?$AAe?$AAe?$AA?$DM?$AAc?$AAl?$AAa?$AAs?$AAs?$AA?5?$AAs?$AAt?$AAd?$AA?3?$AA?3?$AA_?$AAT?$AAm?$AAa?$AAp?$AA_?$AAt?$AAr?$AAa?$AAi@ 100647e8     CrashHandler.obj
 0003:00003d20       ??_C@_1EG@EHJFMBHJ@?$AAm?$AAa?$AAp?$AA?1?$AAs?$AAe?$AAt?$AA?5?$AAi?$AAt?$AAe?$AAr?$AAa?$AAt?$AAo?$AAr?$AA?5?$AAn?$AAo?$AAt?$AA?5?$AAi?$AAn?$AAc?$AAr?$AAe?$AAm?$AAe?$AAn?$AAt?$AAa?$AAb@ 10064d20     CrashHandler.obj
 0003:00003d74       ??_C@_1CE@IGJMOCCK@?$AAi?$AAn?$AAv?$AAa?$AAl?$AAi?$AAd?$AA?5?$AAo?$AAp?$AAe?$AAr?$AAa?$AAt?$AAo?$AAr?$AA?$DM?$AA?$AA@ 10064d74     CrashHandler.obj
 0003:00003da4       ??_7bad_alloc@std@@6B@     10064da4     CrashHandler.obj
 0003:00003db0       ??_C@_08INBFKFGN@Install?6?$AA@ 10064db0     CrashRpt.obj
 0003:00003dec       ??_7CErrorReportApp@@6B@   10064dec     ErrorReport.obj
 0003:00003ed4       ??_C@_09MLBAPPGE@?$CFs?2?$CFs?4dmp?$AA@ 10064ed4     excprpt.obj
 0003:00003ee0       ??_C@_04JKHNIKCB@TEMP?$AA@ 10064ee0     excprpt.obj
 0003:00003ee8       ??_C@_09DHKIEKBO@?$CFs?2?$CFs?4xml?$AA@ 10064ee8     excprpt.obj
 0003:00003ef4       ??_C@_1BE@BOIBNEDH@?$AAE?$AAx?$AAc?$AAe?$AAp?$AAt?$AAi?$AAo?$AAn?$AA?$AA@ 10064ef4     excprpt.obj
 0003:00003f0c       ??_C@_0BB@LFBBIKOO@?$LA?W?M?CKTV?$LA?f?$LB?$LO?$LK?E?3?$AN?6?$AA@ 10064f0c     excprpt.obj
 0003:00003f20       ??_C@_0M@PJHHEBCB@?$LC?Y?W?w?C?h?J?v?3?$AN?6?$AA@ 10064f20     excprpt.obj
 0003:00003f30       ??_C@_09JPOHDAMH@?$LC?Y?W?w?U?K?$LK?E?3?$AA@ 10064f30     excprpt.obj
 0003:00003f3c       ??_C@_0CM@JBEKBIC@?$CF4d?9?$CF02d?9?$CF02d?5?$CF02d?3?$CF02d?3?$CF02d?3?$CF03@ 10064f3c     excprpt.obj
 0003:00003f70       ??_C@_0BD@NMIOBLEC@?$CFs?2Description?4txt?$AA@ 10064f70     excprpt.obj
 0003:00003f88       ??_C@_1CE@FCMLANEP@?$AAE?$AAX?$AAC?$AAE?$AAP?$AAT?$AAI?$AAO?$AAN?$AA_?$AAU?$AAN?$AAK?$AAN?$AAO?$AAW?$AAN?$AA?$AA@ 10064f88     excprpt.obj
 0003:00003fb4       ??_C@_1DC@INLJHEHC@?$AAE?$AAX?$AAC?$AAE?$AAP?$AAT?$AAI?$AAO?$AAN?$AA_?$AAI?$AAN?$AAV?$AAA?$AAL?$AAI?$AAD?$AA_?$AAH?$AAA?$AAN?$AAD?$AAL?$AAE?$AA?$AA@ 10064fb4     excprpt.obj
 0003:00003ff0       ??_C@_1CK@OFIKNIHE@?$AAE?$AAX?$AAC?$AAE?$AAP?$AAT?$AAI?$AAO?$AAN?$AA_?$AAG?$AAU?$AAA?$AAR?$AAD?$AA_?$AAP?$AAA?$AAG?$AAE?$AA?$AA@ 10064ff0     excprpt.obj
 0003:00004024       ??_C@_1DM@BHMFAFLP@?$AAE?$AAX?$AAC?$AAE?$AAP?$AAT?$AAI?$AAO?$AAN?$AA_?$AAI?$AAN?$AAV?$AAA?$AAL?$AAI?$AAD?$AA_?$AAD?$AAI?$AAS?$AAP?$AAO?$AAS?$AAI?$AAT?$AAI?$AAO?$AAN?$AA?$AA@ 10065024     excprpt.obj
 0003:0000406c       ??_C@_1DC@FCIJDDJO@?$AAE?$AAX?$AAC?$AAE?$AAP?$AAT?$AAI?$AAO?$AAN?$AA_?$AAS?$AAT?$AAA?$AAC?$AAK?$AA_?$AAO?$AAV?$AAE?$AAR?$AAF?$AAL?$AAO?$AAW?$AA?$AA@ 1006506c     excprpt.obj
 0003:000040a8       ??_C@_1EG@DMGAABDE@?$AAE?$AAX?$AAC?$AAE?$AAP?$AAT?$AAI?$AAO?$AAN?$AA_?$AAN?$AAO?$AAN?$AAC?$AAO?$AAN?$AAT?$AAI?$AAN?$AAU?$AAA?$AAB?$AAL?$AAE?$AA_?$AAE?$AAX?$AAC?$AAE?$AAP?$AAT?$AAI@ 100650a8     excprpt.obj
 0003:000040fc       ??_C@_1DM@JDMIPLGJ@?$AAE?$AAX?$AAC?$AAE?$AAP?$AAT?$AAI?$AAO?$AAN?$AA_?$AAI?$AAL?$AAL?$AAE?$AAG?$AAA?$AAL?$AA_?$AAI?$AAN?$AAS?$AAT?$AAR?$AAU?$AAC?$AAT?$AAI?$AAO?$AAN?$AA?$AA@ 100650fc     excprpt.obj
 0003:00004144       ??_C@_1DA@LAKALNNI@?$AAE?$AAX?$AAC?$AAE?$AAP?$AAT?$AAI?$AAO?$AAN?$AA_?$AAI?$AAN?$AA_?$AAP?$AAA?$AAG?$AAE?$AA_?$AAE?$AAR?$AAR?$AAO?$AAR?$AA?$AA@ 10065144     excprpt.obj
 0003:00004180       ??_C@_1DG@PNCKAKMD@?$AAE?$AAX?$AAC?$AAE?$AAP?$AAT?$AAI?$AAO?$AAN?$AA_?$AAP?$AAR?$AAI?$AAV?$AA_?$AAI?$AAN?$AAS?$AAT?$AAR?$AAU?$AAC?$AAT?$AAI?$AAO?$AAN?$AA?$AA@ 10065180     excprpt.obj
 0003:000041c0       ??_C@_1CO@FMAJHLPF@?$AAE?$AAX?$AAC?$AAE?$AAP?$AAT?$AAI?$AAO?$AAN?$AA_?$AAI?$AAN?$AAT?$AA_?$AAO?$AAV?$AAE?$AAR?$AAF?$AAL?$AAO?$AAW?$AA?$AA@ 100651c0     excprpt.obj
 0003:000041f8       ??_C@_1DK@EEPECJJJ@?$AAE?$AAX?$AAC?$AAE?$AAP?$AAT?$AAI?$AAO?$AAN?$AA_?$AAI?$AAN?$AAT?$AA_?$AAD?$AAI?$AAV?$AAI?$AAD?$AAE?$AA_?$AAB?$AAY?$AA_?$AAZ?$AAE?$AAR?$AAO?$AA?$AA@ 100651f8     excprpt.obj
 0003:00004240       ??_C@_1DA@LOCKLJOH@?$AAE?$AAX?$AAC?$AAE?$AAP?$AAT?$AAI?$AAO?$AAN?$AA_?$AAF?$AAL?$AAT?$AA_?$AAU?$AAN?$AAD?$AAE?$AAR?$AAF?$AAL?$AAO?$AAW?$AA?$AA@ 10065240     excprpt.obj
 0003:0000427c       ??_C@_1DE@PBANJDHK@?$AAE?$AAX?$AAC?$AAE?$AAP?$AAT?$AAI?$AAO?$AAN?$AA_?$AAF?$AAL?$AAT?$AA_?$AAS?$AAT?$AAA?$AAC?$AAK?$AA_?$AAC?$AAH?$AAE?$AAC?$AAK?$AA?$AA@ 1006527c     excprpt.obj
 0003:000042bc       ??_C@_1CO@INIOBGA@?$AAE?$AAX?$AAC?$AAE?$AAP?$AAT?$AAI?$AAO?$AAN?$AA_?$AAF?$AAL?$AAT?$AA_?$AAO?$AAV?$AAE?$AAR?$AAF?$AAL?$AAO?$AAW?$AA?$AA@ 100652bc     excprpt.obj
 0003:000042f8       ??_C@_1EA@GFBMCNAN@?$AAE?$AAX?$AAC?$AAE?$AAP?$AAT?$AAI?$AAO?$AAN?$AA_?$AAF?$AAL?$AAT?$AA_?$AAI?$AAN?$AAV?$AAA?$AAL?$AAI?$AAD?$AA_?$AAO?$AAP?$AAE?$AAR?$AAA?$AAT?$AAI?$AAO?$AAN?$AA?$AA@ 100652f8     excprpt.obj
 0003:00004344       ??_C@_1DK@JOHFNPA@?$AAE?$AAX?$AAC?$AAE?$AAP?$AAT?$AAI?$AAO?$AAN?$AA_?$AAF?$AAL?$AAT?$AA_?$AAI?$AAN?$AAE?$AAX?$AAA?$AAC?$AAT?$AA_?$AAR?$AAE?$AAS?$AAU?$AAL?$AAT?$AA?$AA@ 10065344     excprpt.obj
 0003:0000438c       ??_C@_1DK@BEFNIBEI@?$AAE?$AAX?$AAC?$AAE?$AAP?$AAT?$AAI?$AAO?$AAN?$AA_?$AAF?$AAL?$AAT?$AA_?$AAD?$AAI?$AAV?$AAI?$AAD?$AAE?$AA_?$AAB?$AAY?$AA_?$AAZ?$AAE?$AAR?$AAO?$AA?$AA@ 1006538c     excprpt.obj
 0003:000043d4       ??_C@_1DO@EGNONNCH@?$AAE?$AAX?$AAC?$AAE?$AAP?$AAT?$AAI?$AAO?$AAN?$AA_?$AAF?$AAL?$AAT?$AA_?$AAD?$AAE?$AAN?$AAO?$AAR?$AAM?$AAA?$AAL?$AA_?$AAO?$AAP?$AAE?$AAR?$AAA?$AAN?$AAD?$AA?$AA@ 100653d4     excprpt.obj
 0003:00004420       ??_C@_1EA@KCJEJHHM@?$AAE?$AAX?$AAC?$AAE?$AAP?$AAT?$AAI?$AAO?$AAN?$AA_?$AAA?$AAR?$AAR?$AAA?$AAY?$AA_?$AAB?$AAO?$AAU?$AAN?$AAD?$AAS?$AA_?$AAE?$AAX?$AAC?$AAE?$AAE?$AAD?$AAE?$AAD?$AA?$AA@ 10065420     excprpt.obj
 0003:0000446c       ??_C@_1CM@IAIFNOBF@?$AAE?$AAX?$AAC?$AAE?$AAP?$AAT?$AAI?$AAO?$AAN?$AA_?$AAS?$AAI?$AAN?$AAG?$AAL?$AAE?$AA_?$AAS?$AAT?$AAE?$AAP?$AA?$AA@ 1006546c     excprpt.obj
 0003:000044a0       ??_C@_1CK@GFOKFPCI@?$AAE?$AAX?$AAC?$AAE?$AAP?$AAT?$AAI?$AAO?$AAN?$AA_?$AAB?$AAR?$AAE?$AAA?$AAK?$AAP?$AAO?$AAI?$AAN?$AAT?$AA?$AA@ 100654a0     excprpt.obj
 0003:000044d8       ??_C@_1EA@DPJMAOIB@?$AAE?$AAX?$AAC?$AAE?$AAP?$AAT?$AAI?$AAO?$AAN?$AA_?$AAD?$AAA?$AAT?$AAA?$AAT?$AAY?$AAP?$AAE?$AA_?$AAM?$AAI?$AAS?$AAA?$AAL?$AAI?$AAG?$AAN?$AAM?$AAE?$AAN?$AAT?$AA?$AA@ 100654d8     excprpt.obj
 0003:00004524       ??_C@_1DG@MBKEFPAE@?$AAE?$AAX?$AAC?$AAE?$AAP?$AAT?$AAI?$AAO?$AAN?$AA_?$AAA?$AAC?$AAC?$AAE?$AAS?$AAS?$AA_?$AAV?$AAI?$AAO?$AAL?$AAA?$AAT?$AAI?$AAO?$AAN?$AA?$AA@ 10065524     excprpt.obj
 0003:00004564       ??_C@_03JELKHEKI@?$CF?$CDx?$AA@ 10065564     excprpt.obj
 0003:00004568       ??_C@_1CC@BIOBIP@?$AAE?$AAx?$AAc?$AAe?$AAp?$AAt?$AAi?$AAo?$AAn?$AAA?$AAd?$AAd?$AAr?$AAe?$AAs?$AAs?$AA?$AA@ 10065568     excprpt.obj
 0003:00004590       ??_C@_1CK@DFKJJDPF@?$AAE?$AAx?$AAc?$AAe?$AAp?$AAt?$AAi?$AAo?$AAn?$AAD?$AAe?$AAs?$AAc?$AAr?$AAi?$AAp?$AAt?$AAi?$AAo?$AAn?$AA?$AA@ 10065590     excprpt.obj
 0003:000045c4       ??_C@_1BM@DJGDNHGF@?$AAE?$AAx?$AAc?$AAe?$AAp?$AAt?$AAi?$AAo?$AAn?$AAC?$AAo?$AAd?$AAe?$AA?$AA@ 100655c4     excprpt.obj
 0003:000045e8       ??_C@_1BG@EHOMMEOC@?$AAM?$AAo?$AAd?$AAu?$AAl?$AAe?$AAN?$AAa?$AAm?$AAe?$AA?$AA@ 100655e8     excprpt.obj
 0003:00004604       ??_C@_1CA@FNDGKLM@?$AAE?$AAx?$AAc?$AAe?$AAp?$AAt?$AAi?$AAo?$AAn?$AAR?$AAe?$AAc?$AAo?$AAr?$AAd?$AA?$AA@ 10065604     excprpt.obj
 0003:00004630       ??_C@_1JC@GDNILAHL@?$AAd?$AA?3?$AA?2?$AAp?$AAr?$AAo?$AAg?$AAr?$AAa?$AAm?$AA?5?$AAf?$AAi?$AAl?$AAe?$AAs?$AA?2?$AAm?$AAi?$AAc?$AAr?$AAo?$AAs?$AAo?$AAf?$AAt?$AA?5?$AAv?$AAi?$AAs?$AAu?$AAa@ 10065630     excprpt.obj
 0003:000046e0       ??_C@_1DC@MNLBGNAM@?$AAn?$AAR?$AAe?$AAs?$AAu?$AAl?$AAt?$AA?5?$AA?$DN?$AA?$DN?$AA?5?$AAn?$AAC?$AAo?$AAn?$AAv?$AAe?$AAr?$AAt?$AAe?$AAd?$AAL?$AAe?$AAn?$AA?$AA@ 100656e0     excprpt.obj
 0003:00004720       ??_C@_1EA@JNIEBDMB@?$AAI?$AAn?$AAt?$AAe?$AAl?$AA?5?$AAP?$AAe?$AAn?$AAt?$AAi?$AAu?$AAm?$AA?5?$AAP?$AAr?$AAo?$AA?5?$AAo?$AAr?$AA?5?$AAP?$AAe?$AAn?$AAt?$AAi?$AAu?$AAm?$AA?5?$AAI?$AAI?$AA?$AA@ 10065720     excprpt.obj
 0003:0000476c       ??_C@_1BM@PKLIJAHL@?$AAI?$AAn?$AAt?$AAe?$AAl?$AA?5?$AAP?$AAe?$AAn?$AAt?$AAi?$AAu?$AAm?$AA?$AA@ 1006576c     excprpt.obj
 0003:00004790       ??_C@_1BI@DHIINJMO@?$AAI?$AAn?$AAt?$AAe?$AAl?$AA?5?$AA8?$AA0?$AA4?$AA8?$AA6?$AA?$AA@ 10065790     excprpt.obj
 0003:000047ac       ??_C@_1BI@EMNPHENJ@?$AAI?$AAn?$AAt?$AAe?$AAl?$AA?5?$AA3?$AA0?$AA3?$AA8?$AA6?$AA?$AA@ 100657ac     excprpt.obj
 0003:000047c8       ??_C@_1BA@LEPJIIOK@?$AAU?$AAn?$AAk?$AAn?$AAo?$AAw?$AAn?$AA?$AA@ 100657c8     excprpt.obj
 0003:000047dc       ??_C@_1DO@PPFDGHLC@?$AAP?$AAR?$AAO?$AAC?$AAE?$AAS?$AAS?$AAO?$AAR?$AA_?$AAA?$AAR?$AAC?$AAH?$AAI?$AAT?$AAE?$AAC?$AAT?$AAU?$AAR?$AAE?$AA_?$AAU?$AAN?$AAK?$AAN?$AAO?$AAW?$AAN?$AA?$AA@ 100657dc     excprpt.obj
 0003:00004828       ??_C@_1DO@IOBPGGIG@?$AAP?$AAR?$AAO?$AAC?$AAE?$AAS?$AAS?$AAO?$AAR?$AA_?$AAA?$AAR?$AAC?$AAH?$AAI?$AAT?$AAE?$AAC?$AAT?$AAU?$AAR?$AAE?$AA_?$AAA?$AAL?$AAP?$AAH?$AAA?$AA6?$AA4?$AA?$AA@ 10065828     excprpt.obj
 0003:00004874       ??_C@_1DI@HJBMEHKE@?$AAP?$AAR?$AAO?$AAC?$AAE?$AAS?$AAS?$AAO?$AAR?$AA_?$AAA?$AAR?$AAC?$AAH?$AAI?$AAT?$AAE?$AAC?$AAT?$AAU?$AAR?$AAE?$AA_?$AAI?$AAA?$AA6?$AA4?$AA?$AA@ 10065874     excprpt.obj
 0003:000048b8       ??_C@_1DG@BENPBLJF@?$AAP?$AAR?$AAO?$AAC?$AAE?$AAS?$AAS?$AAO?$AAR?$AA_?$AAA?$AAR?$AAC?$AAH?$AAI?$AAT?$AAE?$AAC?$AAT?$AAU?$AAR?$AAE?$AA_?$AAA?$AAR?$AAM?$AA?$AA@ 100658b8     excprpt.obj
 0003:000048f8       ??_C@_1DG@OPMLKLJD@?$AAP?$AAR?$AAO?$AAC?$AAE?$AAS?$AAS?$AAO?$AAR?$AA_?$AAA?$AAR?$AAC?$AAH?$AAI?$AAT?$AAE?$AAC?$AAT?$AAU?$AAR?$AAE?$AA_?$AAS?$AAH?$AAX?$AA?$AA@ 100658f8     excprpt.obj
 0003:00004938       ??_C@_1DG@JNJPMBI@?$AAP?$AAR?$AAO?$AAC?$AAE?$AAS?$AAS?$AAO?$AAR?$AA_?$AAA?$AAR?$AAC?$AAH?$AAI?$AAT?$AAE?$AAC?$AAT?$AAU?$AAR?$AAE?$AA_?$AAP?$AAP?$AAC?$AA?$AA@ 10065938     excprpt.obj
 0003:00004978       ??_C@_1DK@JIONHCFC@?$AAP?$AAR?$AAO?$AAC?$AAE?$AAS?$AAS?$AAO?$AAR?$AA_?$AAA?$AAR?$AAC?$AAH?$AAI?$AAT?$AAE?$AAC?$AAT?$AAU?$AAR?$AAE?$AA_?$AAA?$AAL?$AAP?$AAH?$AAA?$AA?$AA@ 10065978     excprpt.obj
 0003:000049c0       ??_C@_1DI@NLEONPJG@?$AAP?$AAR?$AAO?$AAC?$AAE?$AAS?$AAS?$AAO?$AAR?$AA_?$AAA?$AAR?$AAC?$AAH?$AAI?$AAT?$AAE?$AAC?$AAT?$AAU?$AAR?$AAE?$AA_?$AAM?$AAI?$AAP?$AAS?$AA?$AA@ 100659c0     excprpt.obj
 0003:00004a04       ??_C@_1DK@FAKKBBGI@?$AAP?$AAR?$AAO?$AAC?$AAE?$AAS?$AAS?$AAO?$AAR?$AA_?$AAA?$AAR?$AAC?$AAH?$AAI?$AAT?$AAE?$AAC?$AAT?$AAU?$AAR?$AAE?$AA_?$AAI?$AAN?$AAT?$AAE?$AAL?$AA?$AA@ 10065a04     excprpt.obj
 0003:00004a4c       ??_C@_1CG@DECKJBMC@?$AAN?$AAu?$AAm?$AAb?$AAe?$AAr?$AAO?$AAf?$AAP?$AAr?$AAo?$AAc?$AAe?$AAs?$AAs?$AAo?$AAr?$AAs?$AA?$AA@ 10065a4c     excprpt.obj
 0003:00004a7c       ??_C@_1M@MFHLECJA@?$AAL?$AAe?$AAv?$AAe?$AAl?$AA?$AA@ 10065a7c     excprpt.obj
 0003:00004a8c       ??_C@_1BK@NGNFGMBN@?$AAA?$AAr?$AAc?$AAh?$AAi?$AAt?$AAe?$AAc?$AAt?$AAu?$AAr?$AAe?$AA?$AA@ 10065a8c     excprpt.obj
 0003:00004aac       ??_C@_1BE@BJHLLGKN@?$AAP?$AAr?$AAo?$AAc?$AAe?$AAs?$AAs?$AAo?$AAr?$AA?$AA@ 10065aac     excprpt.obj
 0003:00004ac4       ??_C@_1BG@MEBEMGBM@?$AAC?$AAS?$AAD?$AAV?$AAe?$AAr?$AAs?$AAi?$AAo?$AAn?$AA?$AA@ 10065ac4     excprpt.obj
 0003:00004ae0       ??_C@_1BI@NLJPOIDO@?$AAB?$AAu?$AAi?$AAl?$AAd?$AAN?$AAu?$AAm?$AAb?$AAe?$AAr?$AA?$AA@ 10065ae0     excprpt.obj
 0003:00004afc       ??_C@_1BK@DKEJDDCF@?$AAM?$AAi?$AAn?$AAo?$AAr?$AAV?$AAe?$AAr?$AAs?$AAi?$AAo?$AAn?$AA?$AA@ 10065afc     excprpt.obj
 0003:00004b1c       ??_C@_1BK@LEOFJMJL@?$AAM?$AAa?$AAj?$AAo?$AAr?$AAV?$AAe?$AAr?$AAs?$AAi?$AAo?$AAn?$AA?$AA@ 10065b1c     excprpt.obj
 0003:00004b3c       ??_C@_1CA@KMIHFBPO@?$AAO?$AAp?$AAe?$AAr?$AAa?$AAt?$AAi?$AAn?$AAg?$AAS?$AAy?$AAs?$AAt?$AAe?$AAm?$AA?$AA@ 10065b3c     excprpt.obj
 0003:00004b64       ??_C@_0M@PCENNPGA@?$CFd?4?$CFd?4?$CFd?4?$CFd?$AA@ 10065b64     excprpt.obj
 0003:00004b74       ??_C@_0BO@DHINFIAB@?$CF02u?1?$CF02u?1?$CF04u?5?$CF02u?3?$CF02u?3?$CF02u?$AA@ 10065b74     excprpt.obj
 0003:00004b98       ??_C@_1BI@HCCAONKE@?$AAF?$AAi?$AAl?$AAe?$AAV?$AAe?$AAr?$AAs?$AAi?$AAo?$AAn?$AA?$AA@ 10065b98     excprpt.obj
 0003:00004bb4       ??_C@_1BE@DLBHMLBM@?$AAT?$AAi?$AAm?$AAe?$AAS?$AAt?$AAa?$AAm?$AAp?$AA?$AA@ 10065bb4     excprpt.obj
 0003:00004bcc       ??_C@_19CHLDDIME@?$AAS?$AAi?$AAz?$AAe?$AA?$AA@ 10065bcc     excprpt.obj
 0003:00004bd8       ??_C@_1BC@MJCOBLID@?$AAF?$AAu?$AAl?$AAl?$AAP?$AAa?$AAt?$AAh?$AA?$AA@ 10065bd8     excprpt.obj
 0003:00004bf0       ??_C@_1O@MNLDABAF@?$AAM?$AAo?$AAd?$AAu?$AAl?$AAe?$AA?$AA@ 10065bf0     excprpt.obj
 0003:00004c00       ??_C@_1BA@HDPKAGBC@?$AAM?$AAo?$AAd?$AAu?$AAl?$AAe?$AAs?$AA?$AA@ 10065c00     excprpt.obj
 0003:00004c18       ??_7CHTTPUploadFile@@6B@   10065c18     HTTPUploadFile.obj
 0003:00004c20       ??_C@_0BM@GKPKCFJF@internet?5attempt?5connection?$AA@ 10065c20     HTTPUploadFile.obj
 0003:00004c44       ??_C@_0O@ECIKIPFO@?$CI?$LE?m?N?s?$LE?z?B?k?3?$CFd?$CJ?$AA@ 10065c44     HTTPUploadFile.obj
 0003:00004c54       ??_C@_0CB@PEKJONPF@?9?9MULTI?9PARTS?9FORM?9DATA?9BOUNDARY@ 10065c54     HTTPUploadFile.obj
 0003:00004c7c       ??_C@_0BL@CGEEIMID@send?5end?5request?5complete?$CB?$AA@ 10065c7c     HTTPUploadFile.obj
 0003:00004c9c       ??_C@_0BE@FMCFBGEL@data?5send?5complete?$CB?$AA@ 10065c9c     HTTPUploadFile.obj
 0003:00004cb4       ??_C@_0BF@HLGLDBCH@Content?9Length?3?5?$CFd?$AN?6?$AA@ 10065cb4     HTTPUploadFile.obj
 0003:00004cd0       ??_C@_0O@GHCMGJMD@Accept?3?5?$CK?1?$CK?$AN?6?$AA@ 10065cd0     HTTPUploadFile.obj
 0003:00004ce0       ??_C@_04HCJEIHPL@POST?$AA@ 10065ce0     HTTPUploadFile.obj
 0003:00004ce8       ??_C@_03ENEOKCEM@?$CK?1?$CK?$AA@ 10065ce8     HTTPUploadFile.obj
 0003:00004cec       ??_C@_0DB@IOCKNPJJ@Content?9Type?3?5multipart?1form?9dat@ 10065cec     HTTPUploadFile.obj
 0003:00004d28       ??_C@_04HPCHEDBJ@?$CK?1?$CK?$AA?$AA@ 10065d28     HTTPUploadFile.obj
 0003:00004d30       ??_C@_0DI@IFGMLIJK@?9?9?$CFs?$AN?6Content?9Disposition?3?5form?9@ 10065d30     HTTPUploadFile.obj
 0003:00004d74       ??_C@_0L@NAAOAPHF@?$AN?6?9?9?$CFs?9?9?$AN?6?$AA@ 10065d74     HTTPUploadFile.obj
 0003:00004d88       ??_C@_0FF@FHPDNCNA@?9?9?$CFs?$AN?6Content?9Disposition?3?5form?9@ 10065d88     HTTPUploadFile.obj
 0003:00004df0       ??_C@_0BJ@FPCLKB@Responese?$LH?$LF?$LL?X?D?Z?H?$NN?$LD?$KE?$LG?H?N?$KK0?$AA@ 10065df0     HTTPUploadFile.obj
 0003:00004e10       ??_C@_0N@MMLNJHO@Content?5Type?$AA@ 10065e10     HTTPUploadFile.obj
 0003:00004e20       ??_C@_05BCHGOAMK@https?$AA@ 10065e20     HTTPUploadFile.obj
 0003:00004e28       ??_C@_04IAFLKNP@http?$AA@  10065e28     HTTPUploadFile.obj
 0003:00004e30       ??_C@_01KMDKNFGN@?1?$AA@   10065e30     HTTPUploadFile.obj
 0003:00004e34       ??_C@_01JLIPDDHJ@?3?$AA@   10065e34     HTTPUploadFile.obj
 0003:00004e38       ??_C@_1EI@HGIDLLCM@?$AAv?$AAe?$AAc?$AAt?$AAo?$AAr?$AA?5?$AAe?$AAr?$AAa?$AAs?$AAe?$AA?5?$AAi?$AAt?$AAe?$AAr?$AAa?$AAt?$AAo?$AAr?$AA?5?$AAo?$AAu?$AAt?$AAs?$AAi?$AAd?$AAe?$AA?5?$AAr?$AAa@ 10065e38     HTTPUploadFile.obj
 0003:00004e90       ??_C@_1HO@EDDIPOIO@?$AAd?$AA?3?$AA?2?$AAp?$AAr?$AAo?$AAg?$AAr?$AAa?$AAm?$AA?5?$AAf?$AAi?$AAl?$AAe?$AAs?$AA?2?$AAm?$AAi?$AAc?$AAr?$AAo?$AAs?$AAo?$AAf?$AAt?$AA?5?$AAv?$AAi?$AAs?$AAu?$AAa@ 10065e90     HTTPUploadFile.obj
 0003:00004f28       ??_C@_1EE@EJDKCLKB@?$AAv?$AAe?$AAc?$AAt?$AAo?$AAr?$AA?5?$AAi?$AAt?$AAe?$AAr?$AAa?$AAt?$AAo?$AAr?$AA?5?$AAn?$AAo?$AAt?$AA?5?$AAi?$AAn?$AAc?$AAr?$AAe?$AAm?$AAe?$AAn?$AAt?$AAa?$AAb?$AAl@ 10065f28     HTTPUploadFile.obj
 0003:00004f80       ??_C@_1HE@NMBDDEHP@?$AA?$CI?$AA?$CC?$AA_?$AAM?$AAy?$AAp?$AAt?$AAr?$AA?5?$AA?$DM?$AA?5?$AA?$CI?$AA?$CI?$AA_?$AAM?$AAy?$AAv?$AAe?$AAc?$AA?5?$AA?$CK?$AA?$CJ?$AA?$CI?$AAt?$AAh?$AAi?$AAs?$AA?9?$AA?$DO?$AA_?$AAG?$AAe@ 10065f80     HTTPUploadFile.obj
 0003:00005010       ??_C@_1BEO@KMMMJCL@?$AAs?$AAt?$AAd?$AA?3?$AA?3?$AA_?$AAV?$AAe?$AAc?$AAt?$AAo?$AAr?$AA_?$AAc?$AAo?$AAn?$AAs?$AAt?$AA_?$AAi?$AAt?$AAe?$AAr?$AAa?$AAt?$AAo?$AAr?$AA?$DM?$AAs?$AAt?$AAr?$AAu@ 10066010     HTTPUploadFile.obj
 0003:000051a0       ??_C@_1DM@LBMEEJPP@?$AA?$CI?$AA?$CC?$AAt?$AAh?$AAi?$AAs?$AA?9?$AA?$DO?$AA_?$AAH?$AAa?$AAs?$AA_?$AAc?$AAo?$AAn?$AAt?$AAa?$AAi?$AAn?$AAe?$AAr?$AA?$CI?$AA?$CJ?$AA?$CC?$AA?0?$AA?5?$AA0?$AA?$CJ?$AA?$AA@ 100661a0     HTTPUploadFile.obj
 0003:000051e8       ??_C@_1BEG@GEGEPKEB@?$AAs?$AAt?$AAd?$AA?3?$AA?3?$AA_?$AAV?$AAe?$AAc?$AAt?$AAo?$AAr?$AA_?$AAc?$AAo?$AAn?$AAs?$AAt?$AA_?$AAi?$AAt?$AAe?$AAr?$AAa?$AAt?$AAo?$AAr?$AA?$DM?$AAs?$AAt?$AAr?$AAu@ 100661e8     HTTPUploadFile.obj
 0003:00005370       ??_C@_1DM@HINDPMBP@?$AAv?$AAe?$AAc?$AAt?$AAo?$AAr?$AA?5?$AAi?$AAt?$AAe?$AAr?$AAa?$AAt?$AAo?$AAr?$AAs?$AA?5?$AAi?$AAn?$AAc?$AAo?$AAm?$AAp?$AAa?$AAt?$AAi?$AAb?$AAl?$AAe?$AA?$AA@ 10066370     HTTPUploadFile.obj
 0003:000053b8       ??_C@_1EK@EEHFMKDC@?$AAv?$AAe?$AAc?$AAt?$AAo?$AAr?$AA?5?$AAi?$AAn?$AAs?$AAe?$AAr?$AAt?$AA?5?$AAi?$AAt?$AAe?$AAr?$AAa?$AAt?$AAo?$AAr?$AA?5?$AAo?$AAu?$AAt?$AAs?$AAi?$AAd?$AAe?$AA?5?$AAr@ 100663b8     HTTPUploadFile.obj
 0003:00005410       ??_C@_0BD@OLBABOEK@vector?$DMT?$DO?5too?5long?$AA@ 10066410     HTTPUploadFile.obj
 0003:00005428       ??_C@_1BDI@CLBNHFNK@?$AAs?$AAt?$AAd?$AA?3?$AA?3?$AA_?$AAV?$AAe?$AAc?$AAt?$AAo?$AAr?$AA_?$AAc?$AAo?$AAn?$AAs?$AAt?$AA_?$AAi?$AAt?$AAe?$AAr?$AAa?$AAt?$AAo?$AAr?$AA?$DM?$AAs?$AAt?$AAr?$AAu@ 10066428     HTTPUploadFile.obj
 0003:000055a0       ??_C@_1NK@JLHOCNGO@?$AA?$CI?$AA?$CC?$AA_?$AAP?$AAv?$AAe?$AAc?$AAt?$AAo?$AAr?$AA?5?$AA?$DN?$AA?$DN?$AA?5?$AAN?$AAU?$AAL?$AAL?$AA?5?$AA?$HM?$AA?$HM?$AA?5?$AA?$CI?$AA?$CI?$AA?$CI?$AA_?$AAM?$AAy?$AAv?$AAe?$AAc?$AA?5@ 100665a0     HTTPUploadFile.obj
 0003:000056a8       ??_C@_1BCA@PEEDGOOL@?$AAs?$AAt?$AAd?$AA?3?$AA?3?$AA_?$AAV?$AAe?$AAc?$AAt?$AAo?$AAr?$AA_?$AAc?$AAo?$AAn?$AAs?$AAt?$AA_?$AAi?$AAt?$AAe?$AAr?$AAa?$AAt?$AAo?$AAr?$AA?$DM?$AAs?$AAt?$AAr?$AAu@ 100666a8     HTTPUploadFile.obj
 0003:00005808       ??_C@_1EG@FOHJJHAC@?$AAv?$AAe?$AAc?$AAt?$AAo?$AAr?$AA?5?$AAi?$AAt?$AAe?$AAr?$AAa?$AAt?$AAo?$AAr?$AA?5?$AAn?$AAo?$AAt?$AA?5?$AAd?$AAe?$AAr?$AAe?$AAf?$AAe?$AAr?$AAe?$AAn?$AAc?$AAa?$AAb@ 10066808     HTTPUploadFile.obj
 0003:00005860       ??_C@_1BCC@KLOPGJKB@?$AAs?$AAt?$AAd?$AA?3?$AA?3?$AA_?$AAV?$AAe?$AAc?$AAt?$AAo?$AAr?$AA_?$AAc?$AAo?$AAn?$AAs?$AAt?$AA_?$AAi?$AAt?$AAe?$AAr?$AAa?$AAt?$AAo?$AAr?$AA?$DM?$AAs?$AAt?$AAr?$AAu@ 10066860     HTTPUploadFile.obj
 0003:000059c0       ??_C@_1BBK@FGALAJPB@?$AAs?$AAt?$AAd?$AA?3?$AA?3?$AA_?$AAV?$AAe?$AAc?$AAt?$AAo?$AAr?$AA_?$AAc?$AAo?$AAn?$AAs?$AAt?$AA_?$AAi?$AAt?$AAe?$AAr?$AAa?$AAt?$AAo?$AAr?$AA?$DM?$AAs?$AAt?$AAr?$AAu@ 100669c0     HTTPUploadFile.obj
 0003:00005b18       ??_C@_1BGE@IILKFADD@?$AAs?$AAt?$AAd?$AA?3?$AA?3?$AA_?$AAV?$AAe?$AAc?$AAt?$AAo?$AAr?$AA_?$AAc?$AAo?$AAn?$AAs?$AAt?$AA_?$AAi?$AAt?$AAe?$AAr?$AAa?$AAt?$AAo?$AAr?$AA?$DM?$AAs?$AAt?$AAr?$AAu@ 10066b18     HTTPUploadFile.obj
 0003:00005cc8       ??_C@_1BEM@KFLHIBLI@?$AAs?$AAt?$AAd?$AA?3?$AA?3?$AA_?$AAV?$AAe?$AAc?$AAt?$AAo?$AAr?$AA_?$AAc?$AAo?$AAn?$AAs?$AAt?$AA_?$AAi?$AAt?$AAe?$AAr?$AAa?$AAt?$AAo?$AAr?$AA?$DM?$AAs?$AAt?$AAr?$AAu@ 10066cc8     HTTPUploadFile.obj
 0003:00005e58       ??_C@_1BAC@KBDNDJPK@?$AA?$CI?$AA?$CC?$AA_?$AAM?$AAy?$AAp?$AAt?$AAr?$AA?5?$AA?$CL?$AA?5?$AA_?$AAO?$AAf?$AAf?$AA?5?$AA?$DM?$AA?$DN?$AA?5?$AA?$CI?$AA?$CI?$AA_?$AAM?$AAy?$AAv?$AAe?$AAc?$AA?5?$AA?$CK?$AA?$CJ?$AA?$CI?$AAt@ 10066e58     HTTPUploadFile.obj
 0003:00005f90       ??_C@_1BCC@NOJNGBOC@?$AAs?$AAt?$AAd?$AA?3?$AA?3?$AA_?$AAV?$AAe?$AAc?$AAt?$AAo?$AAr?$AA_?$AAc?$AAo?$AAn?$AAs?$AAt?$AA_?$AAi?$AAt?$AAe?$AAr?$AAa?$AAt?$AAo?$AAr?$AA?$DM?$AAs?$AAt?$AAr?$AAu@ 10066f90     HTTPUploadFile.obj
 0003:000060f0       ??_C@_1BEO@HPLOMBGI@?$AAs?$AAt?$AAd?$AA?3?$AA?3?$AA_?$AAV?$AAe?$AAc?$AAt?$AAo?$AAr?$AA_?$AAc?$AAo?$AAn?$AAs?$AAt?$AA_?$AAi?$AAt?$AAe?$AAr?$AAa?$AAt?$AAo?$AAr?$AA?$DM?$AAs?$AAt?$AAr?$AAu@ 100670f0     HTTPUploadFile.obj
 0003:00006280       ??_C@_1CO@DGLIKNHI@?$AAi?$AAn?$AAv?$AAa?$AAl?$AAi?$AAd?$AA?5?$AAi?$AAt?$AAe?$AAr?$AAa?$AAt?$AAo?$AAr?$AA?5?$AAr?$AAa?$AAn?$AAg?$AAe?$AA?$AA@ 10067280     HTTPUploadFile.obj
 0003:000062b8       ??_C@_1HO@DNODHCIF@?$AAd?$AA?3?$AA?2?$AAp?$AAr?$AAo?$AAg?$AAr?$AAa?$AAm?$AA?5?$AAf?$AAi?$AAl?$AAe?$AAs?$AA?2?$AAm?$AAi?$AAc?$AAr?$AAo?$AAs?$AAo?$AAf?$AAt?$AA?5?$AAv?$AAi?$AAs?$AAu?$AAa@ 100672b8     HTTPUploadFile.obj
 0003:00006350       ??_C@_1CK@EOPGIILJ@?$AAi?$AAn?$AAv?$AAa?$AAl?$AAi?$AAd?$AA?5?$AAn?$AAu?$AAl?$AAl?$AA?5?$AAp?$AAo?$AAi?$AAn?$AAt?$AAe?$AAr?$AA?$AA@ 10067350     HTTPUploadFile.obj
 0003:00006384       ??_C@_07BKMGGIAB@WC?5Mail?$AA@ 10067384     MailMessage.obj
 0003:00006394       ??_7CMailMessage@@6B@      10067394     MailMessage.obj
 0003:000063b4       ??_C@_0L@JCLOKMLO@X?9Mailer?3?5?$AA@ 100673b4     MailMessage.obj
 0003:000063c4       ??_C@_09JHOEHIGO@Subject?3?5?$AA@ 100673c4     MailMessage.obj
 0003:000063d0       ??_C@_0BJ@CAFGEGHO@?$CFa?0?5?$CFd?5?$CFb?5?$CFy?5?$CFH?3?$CFM?3?$CFS?5?$CFZ?$AA@ 100673d0     MailMessage.obj
 0003:000063f0       ??_C@_06KNKNKIMO@Date?3?5?$AA@ 100673f0     MailMessage.obj
 0003:000063f8       ??_C@_04LDGFDGHC@Cc?3?5?$AA@ 100673f8     MailMessage.obj
 0003:00006400       ??_C@_01PPODPGHN@?$DO?$AA@ 10067400     MailMessage.obj
 0003:00006404       ??_C@_01MNNFJEPP@?$DM?$AA@ 10067404     MailMessage.obj
 0003:00006408       ??_C@_04CLHDMCFI@To?3?5?$AA@ 10067408     MailMessage.obj
 0003:00006410       ??_C@_06GNPEEHKO@From?3?5?$AA@ 10067410     MailMessage.obj
 0003:00006418       ??_C@_04LLEBNMDN@?$CFs?$AN?6?$AA@ 10067418     MailMessage.obj
 0003:00006424       ??_7?$CArray@VCRecipient@CMailMessage@@AAV12@@@6B@ 10067424     MailMessage.obj
 0003:00006440       ??_C@_0EK@NADDBEOG@d?3?2program?5files?2microsoft?5visua@ 10067440     MailMessage.obj
 0003:00006498       ??_C@_01EEMJAFIK@?6?$AA@   10067498     MailMessage.obj
 0003:0000649c       ??_C@_05PLCFPPOI@with?5?$AA@ 1006749c     MailMessage.obj
 0003:000064a4       ??_C@_09HCLNAIDE@?5elements?$AA@ 100674a4     MailMessage.obj
 0003:000064b0       ??_C@_08BHEONDAO@CMainDlg?$AA@ 100674b0     MainDlg.obj
 0003:000064bc       ?classCMainDlg@CMainDlg@@2UCRuntimeClass@@B 100674bc     MainDlg.obj
 0003:0000655c       ??_C@_04IKDGCAJA@?K?N?L?e?$AA@ 1006755c     MainDlg.obj
 0003:0000656c       ??_7CMainDlg@@6B@          1006756c     MainDlg.obj
 0003:00006724       ??_C@_0BA@GJFHDJIP@?$LA?W?M?CKTV?$LE?m?N?s?$LB?$KI?$LI?f?$AA@ 10067724     MainDlg.obj
 0003:00006738       ??_C@_0HC@BCBCKFIA@baituKTV?S?v?$LF?$LN?N?$LE?V?$KK?$LE?m?N?s?P?h?R?$KK?$LJ?X?$LB?U?$KD?$KM?N?R@ 10067738     MainDlg.obj
 0003:000067c4       ??_7CMIMECode@@6B@         100677c4     MIMECode.obj
 0003:000067d8       ??_7CMIMEContentAgent@@6B@ 100677d8     MIMEContentAgent.obj
 0003:000067ec       ??_C@_0CN@OKAIJOEK@This?5is?5a?5multi?9part?5message?5in?5@ 100677ec     MIMEMessage.obj
 0003:00006824       ??_C@_0BP@CHHPNLAN@WC_MAIL_PaRt_BoUnDaRy_05151998?$AA@ 10067824     MIMEMessage.obj
 0003:0000684c       ??_C@_0BA@LBPJGHIO@multipart?1mixed?$AA@ 1006784c     MIMEMessage.obj
 0003:00006864       ??_7CMIMEMessage@@6B@      10067864     MIMEMessage.obj
 0003:00006888       ??_C@_0BO@JFKJFFDF@Content?9Type?3?5?$CFs?$DL?5boundary?$DN?$CFs?$AA@ 10067888     MIMEMessage.obj
 0003:000068ac       ??_C@_0BC@IOKEKJJ@MIME?9Version?3?51?40?$AA@ 100678ac     MIMEMessage.obj
 0003:000068c4       ??_C@_04FMMHFHOO@?$AN?6?$AN?6?$AA@ 100678c4     MIMEMessage.obj
 0003:000068cc       ??_C@_06PFFHLKOK@?9?9?$CFs?$AN?6?$AA@ 100678cc     MIMEMessage.obj
 0003:000068d4       ??_C@_08IBDGHHPJ@?9?9?$CFs?9?9?$AN?6?$AA@ 100678d4     MIMEMessage.obj
 0003:000068e4       ??_7CMIMETypeManager@CMIMEMessage@@6B@ 100678e4     MIMEMessage.obj
 0003:000068f0       ??_7?$CList@VCMIMEPart@CMIMEMessage@@AAV12@@@6B@ 100678f0     MIMEMessage.obj
 0003:0000690c       ??_7?$CList@PAVCMIMEContentAgent@@PAV1@@@6B@ 1006790c     MIMEMessage.obj
 0003:00006924       ??_C@_0BP@PDLJMOBM@unexpected?5auth?5login?5response?$AA@ 10067924     SMTP.obj
 0003:0000694c       ??_C@_0BI@MPDPGJMG@no?5extended?5SMTP?5server?$AA@ 1006794c     SMTP.obj
 0003:00006968       ??_C@_0CF@KPJDAHNL@SMTP?5server?5didn?8t?5terminate?5ses@ 10067968     SMTP.obj
 0003:00006994       ??_C@_0BP@INDIKMN@SMTP?5server?5not?5ready?5for?5data?$AA@ 10067994     SMTP.obj
 0003:000069bc       ??_C@_0BK@BBNLIPJL@SMTP?5server?5not?5available?$AA@ 100679bc     SMTP.obj
 0003:000069dc       ??_C@_0BC@GPFELDFK@SMTP?5server?5error?$AA@ 100679dc     SMTP.obj
 0003:000069f4       ??_C@_02GIPFHKNO@OK?$AA@   100679f4     SMTP.obj
 0003:000069fc       ??_7CSMTP@@6B@             100679fc     SMTP.obj
 0003:00006a0c       ??_C@_09EMFMJFEO@HELO?5?$CFs?$AN?6?$AA@ 10067a0c     SMTP.obj
 0003:00006a18       ??_C@_0BH@HECIBNN@Server?5didn?8t?5respond?4?$AA@ 10067a18     SMTP.obj
 0003:00006a34       ??_C@_0BM@OLEJDHCB@Unable?5to?5connect?5to?5server?$AA@ 10067a34     SMTP.obj
 0003:00006a58       ??_C@_0BN@BBDBOECH@Unable?5to?5create?5the?5socket?4?$AA@ 10067a58     SMTP.obj
 0003:00006a7c       ??_C@_0BC@BAKIAKOF@Not?5enough?5memory?$AA@ 10067a7c     SMTP.obj
 0003:00006a94       ??_C@_09EIONPJKJ@EHLO?5?$CFs?$AN?6?$AA@ 10067a94     SMTP.obj
 0003:00006aa0       ??_C@_06FIMJICNC@QUIT?$AN?6?$AA@ 10067aa0     SMTP.obj
 0003:00006aa8       ??_C@_0BM@HGLEIMIA@failed?5to?5transmit?5message?6?$AA@ 10067aa8     SMTP.obj
 0003:00006acc       ??_C@_0BP@IFLDCFEC@failed?5to?5format?5mail?5message?6?$AA@ 10067acc     SMTP.obj
 0003:00006af4       ??_C@_0BC@CEGJOBAA@Must?5be?5connected?$AA@ 10067af4     SMTP.obj
 0003:00006b0c       ??_C@_0O@DGNAEBPH@No?5Recipients?$AA@ 10067b0c     SMTP.obj
 0003:00006b1c       ??_C@_03GMGBIDDH@?4?$AN?6?$AA@ 10067b1c     SMTP.obj
 0003:00006b20       ??_C@_06GOPEFAJG@?$AN?6?4?4?$AN?6?$AA@ 10067b20     SMTP.obj
 0003:00006b28       ??_C@_05KMJPGPH@?$AN?6?4?$AN?6?$AA@ 10067b28     SMTP.obj
 0003:00006b30       ??_C@_06KNPIFKI@DATA?$AN?6?$AA@ 10067b30     SMTP.obj
 0003:00006b38       ??_C@_0BA@PAJOOKEN@RCPT?5TO?3?5?$DM?$CFs?$DO?$AN?6?$AA@ 10067b38     SMTP.obj
 0003:00006b4c       ??_C@_0CI@CNICNCAJ@MAIL?5From?3?5?$DMclientreport?$EAmail?451@ 10067b4c     SMTP.obj
 0003:00006b7c       ??_C@_0BH@PFCJCEBM@get_response?5success?4?6?$AA@ 10067b7c     SMTP.obj
 0003:00006b98       ??_C@_05NAOMKNKP@?$CFd?3?$CFs?$AA@ 10067b98     SMTP.obj
 0003:00006ba0       ??_C@_0BC@GNKPBENN@get_response?3?5?$CFs?6?$AA@ 10067ba0     SMTP.obj
 0003:00006bb8       ??_C@_0N@EMFMKLBG@Socket?5Error?$AA@ 10067bb8     SMTP.obj
 0003:00006bc8       ??_C@_0CI@MBHOKBDJ@send?5base64?5encoded?5password?5?5su@ 10067bc8     SMTP.obj
 0003:00006bf8       ??_C@_09PIHPNDEE@password?3?$AA@ 10067bf8     SMTP.obj
 0003:00006c04       ??_C@_0CI@BBOEBOCJ@send?5base64?5encoded?5username?5?5su@ 10067c04     SMTP.obj
 0003:00006c34       ??_C@_0CI@HFCIKDKL@UNEXPECTED_AUTH_LOGIN_USERNAME_R@ 10067c34     SMTP.obj
 0003:00006c64       ??_C@_09BCJCIBCD@username?3?$AA@ 10067c64     SMTP.obj
 0003:00006c70       ??_C@_0N@PBIADBBH@AUTH?5LOGIN?$AN?6?$AA@ 10067c70     SMTP.obj
 0003:00006c80       ??_C@_05LGDJAMLD@11111?$AA@ 10067c80     SMTP.obj
 0003:00006c88       ??_C@_0BJ@HOFCPBMK@clientreport?$EAmail?451?4com?$AA@ 10067c88     SMTP.obj
 0003:00006cac       ??_7CTextPlain@@6B@        10067cac     TextPlain.obj
 0003:00006cc0       ??_C@_0L@NPNLKGOJ@text?1plain?$AA@ 10067cc0     TextPlain.obj
 0003:00006cd0       ??_C@_04BHJELAJP@7Bit?$AA@ 10067cd0     TextPlain.obj
 0003:00006cd8       ??_C@_0BM@MCMHCKIN@Content?9Transfer?9Encoding?3?5?$AA@ 10067cd8     TextPlain.obj
 0003:00006cfc       ??_C@_03LCAAOJEC@zip?$AA@  10067cfc     Utility.obj
 0003:00006d00       ??_C@_04NCAGELPD@?4rar?$AA@ 10067d00     Utility.obj
 0003:00006d0c       ??_7CZLib@@6B@             10067d0c     zlibcpp.obj
 0003:00006d5c       __pActualRawDllMain        10067d5c     mfcs90d:dllmodul.obj
 0003:00006d68       ??_C@_0CO@ELEHFBDD@Warning?3?5Temp?5map?5lock?5count?5non@ 10067d68     mfcs90d:dllmodul.obj
 0003:00006da0       ??_C@_0DH@PMDGJBAD@f?3?2dd?2vctools?2vc7libs?2ship?2atlmf@ 10067da0     mfcs90d:dllmodul.obj
 0003:00006de8       ??_7_AFX_DLL_MODULE_STATE@@6B@ 10067de8     mfcs90d:dllmodul.obj
 0003:00006e44       ??_7type_info@@6B@         10067e44     msvcrtd:ti_inst.obj
 0003:00006e4c       __pDefaultRawDllMain       10067e4c     msvcrtd:crtdll.obj
 0003:00006e50       ??_C@_0DA@FJPPCPEH@f?3?2dd?2vctools?2crt_bld?2self_x86?2c@ 10067e50     msvcrtd:crtdll.obj
 0003:00006e8c       ??_C@_0BP@OGBCLIBO@Stack?5around?5_alloca?5corrupted?$AA@ 10067e8c     msvcrtd:_userapi_.obj
 0003:00006eb4       ??_C@_0CK@CNLNOEPB@Local?5variable?5used?5before?5initi@ 10067eb4     msvcrtd:_userapi_.obj
 0003:00006ee8       ??_C@_0BI@CIGMDCBH@Stack?5memory?5corruption?$AA@ 10067ee8     msvcrtd:_userapi_.obj
 0003:00006f04       ??_C@_0CK@FEGOIOPB@Cast?5to?5smaller?5type?5causing?5los@ 10067f04     msvcrtd:_userapi_.obj
 0003:00006f38       ??_C@_0BJ@HEGAHDFO@Stack?5pointer?5corruption?$AA@ 10067f38     msvcrtd:_userapi_.obj
 0003:00006f70       ??_C@_0BO@GNIAFIKK@Unknown?5Runtime?5Check?5Error?6?$AN?$AA@ 10067f70     msvcrtd:_error_.obj
 0003:00006f94       ??_C@_0CM@NGINOKPC@Stack?5memory?5around?5_alloca?5was?5@ 10067f94     msvcrtd:_error_.obj
 0003:00006fc8       ??_C@_0DG@HKJMLLLP@A?5local?5variable?5was?5used?5before@ 10067fc8     msvcrtd:_error_.obj
 0003:00007008       ??_C@_0BN@FFOINMNJ@Stack?5memory?5was?5corrupted?6?$AN?$AA@ 10068008     msvcrtd:_error_.obj
 0003:00007030       ??_C@_0BBN@GPMLNJCF@A?5cast?5to?5a?5smaller?5data?5type?5ha@ 10068030     msvcrtd:_error_.obj
 0003:00007188       ??_C@_0NN@NGPKDKPD@The?5value?5of?5ESP?5was?5not?5properl@ 10068188     msvcrtd:_error_.obj
 0003:00007350       ??_C@_0CA@IODNCDPG@Run?9Time?5Check?5Failure?5?$CD?$CFd?5?9?5?$CFs?$AA@ 10068350     msvcrtd:_error_.obj
 0003:00007378       ??_C@_0BE@GNBOBNCK@Unknown?5Module?5Name?$AA@ 10068378     msvcrtd:_error_.obj
 0003:00007390       ??_C@_0BB@PFFGGCJP@Unknown?5Filename?$AA@ 10068390     msvcrtd:_error_.obj
 0003:000073a8       ??_C@_1EA@NFKNIFJP@?$AAR?$AAu?$AAn?$AA?9?$AAT?$AAi?$AAm?$AAe?$AA?5?$AAC?$AAh?$AAe?$AAc?$AAk?$AA?5?$AAF?$AAa?$AAi?$AAl?$AAu?$AAr?$AAe?$AA?5?$AA?$CD?$AA?$CF?$AAd?$AA?5?$AA?9?$AA?5?$AA?$CF?$AAs?$AA?$AA@ 100683a8     msvcrtd:_error_.obj
 0003:000073f8       ??_C@_1GM@OLMCBDMB@?$AAR?$AAu?$AAn?$AAt?$AAi?$AAm?$AAe?$AA?5?$AAC?$AAh?$AAe?$AAc?$AAk?$AA?5?$AAE?$AAr?$AAr?$AAo?$AAr?$AA?4?$AA?6?$AA?$AN?$AA?5?$AAU?$AAn?$AAa?$AAb?$AAl?$AAe?$AA?5?$AAt?$AAo@ 100683f8     msvcrtd:_error_.obj
 0003:0000747c       ??_C@_0CG@IAFNJNEE@Stack?5corrupted?5near?5unknown?5var@ 1006847c     msvcrtd:_error_.obj
 0003:000074b0       ??_C@_0EJ@LJKNEOLN@Stack?5area?5around?5_alloca?5memory@ 100684b0     msvcrtd:_error_.obj
 0003:00007508       ??_C@_08KJEDNCKC@?$CFs?$CFs?$CFs?$CFs?$AA@ 10068508     msvcrtd:_error_.obj
 0003:00007514       ??_C@_02LLMPMKNF@?$DO?5?$AA@ 10068514     msvcrtd:_error_.obj
 0003:00007518       ??_C@_0BC@KIBAILCI@?$CFs?$CFs?$CFp?$CFs?$CFld?$CFs?$CFd?$CFs?$AA@ 10068518     msvcrtd:_error_.obj
 0003:00007530       ??_C@_0EI@CLEPFNGI@Stack?5area?5around?5_alloca?5memory@ 10068530     msvcrtd:_error_.obj
 0003:00007588       ??_C@_0N@MHFFIMFG@?6Address?3?50x?$AA@ 10068588     msvcrtd:_error_.obj
 0003:00007598       ??_C@_07DFDJCKFN@?6Size?3?5?$AA@ 10068598     msvcrtd:_error_.obj
 0003:000075a4       ??_C@_0CK@DKGBICFE@?6Allocation?5number?5within?5this?5f@ 100685a4     msvcrtd:_error_.obj
 0003:000075d8       ??_C@_08OMAHNMHJ@?6Data?3?5?$DM?$AA@ 100685d8     msvcrtd:_error_.obj
 0003:000075e4       ??_C@_09FOPFMPEJ@wsprintfA?$AA@ 100685e4     msvcrtd:_error_.obj
 0003:000075f0       ??_C@_0L@GMPLCCII@user32?4dll?$AA@ 100685f0     msvcrtd:_error_.obj
 0003:00007600       ??_C@_05MKKEDADM@?$CF?42X?5?$AA@ 10068600     msvcrtd:_error_.obj
 0003:00007608       ??_C@_0DE@OHJBPMBP@A?5variable?5is?5being?5used?5without@ 10068608     msvcrtd:_error_.obj
 0003:00007654       ?ProcessDetach@NativeDll@<CrtImplementationDetails>@@0IB 10068654     msvcrtd:tncleanup.obj
 0003:00007658       ?ProcessAttach@NativeDll@<CrtImplementationDetails>@@0IB 10068658     msvcrtd:tncleanup.obj
 0003:0000765c       ?ThreadAttach@NativeDll@<CrtImplementationDetails>@@0IB 1006865c     msvcrtd:tncleanup.obj
 0003:00007660       ?ThreadDetach@NativeDll@<CrtImplementationDetails>@@0IB 10068660     msvcrtd:tncleanup.obj
 0003:00007664       ?ProcessVerifier@NativeDll@<CrtImplementationDetails>@@0IB 10068664     msvcrtd:tncleanup.obj
 0003:00007668       ??_C@_0M@EKFFODEC@MSPDB80?4DLL?$AA@ 10068668     msvcrtd:_pdblkup_.obj
 0003:00007678       ??_C@_01KDCPPGHE@r?$AA@    10068678     msvcrtd:_pdblkup_.obj
 0003:0000767c       ??_C@_0BB@KCIACLNC@PDBOpenValidate5?$AA@ 1006867c     msvcrtd:_pdblkup_.obj
 0003:00007690       ??_C@_0BF@BMIHBHCA@EnvironmentDirectory?$AA@ 10068690     msvcrtd:_pdblkup_.obj
 0003:000076ac       ??_C@_0CN@JNNIHDGH@SOFTWARE?2Microsoft?2VisualStudio?2@ 100686ac     msvcrtd:_pdblkup_.obj
 0003:000076e4       ??_C@_0M@HLOHPNFA@RegCloseKey?$AA@ 100686e4     msvcrtd:_pdblkup_.obj
 0003:000076f4       ??_C@_0BB@HHEIPGME@RegQueryValueExA?$AA@ 100686f4     msvcrtd:_pdblkup_.obj
 0003:00007708       ??_C@_0O@DCOGKJGG@RegOpenKeyExA?$AA@ 10068708     msvcrtd:_pdblkup_.obj
 0003:00007718       ??_C@_0N@JJPEKNFO@ADVAPI32?4DLL?$AA@ 10068718     msvcrtd:_pdblkup_.obj
 0003:00007728       ??_C@_1BK@NHHHCKNA@?$AAm?$AA_?$AAt?$AAi?$AAm?$AAe?$AA?5?$AA?$CB?$AA?$DN?$AA?5?$AA?9?$AA1?$AA?$AA@ 10068728     atlsd:atltime.obj
 0003:00007748       ??_C@_1GM@GOMCALCH@?$AAf?$AA?3?$AA?2?$AAd?$AAd?$AA?2?$AAv?$AAc?$AAt?$AAo?$AAo?$AAl?$AAs?$AA?2?$AAv?$AAc?$AA7?$AAl?$AAi?$AAb?$AAs?$AA?2?$AAs?$AAh?$AAi?$AAp?$AA?2?$AAa?$AAt?$AAl?$AAm?$AAf@ 10068748     atlsd:atltime.obj
 0003:000077cc       ??_C@_1BM@GBBOFEAE@?$AA_?$AA_?$AAa?$AAt?$AAl?$AA_?$AAc?$AAo?$AAn?$AAd?$AAV?$AAa?$AAl?$AA?$AA@ 100687cc     atlsd:atltime.obj
 0003:000077f0       ??_C@_1GM@OMLOBEGL@?$AAf?$AA?3?$AA?2?$AAd?$AAd?$AA?2?$AAv?$AAc?$AAt?$AAo?$AAo?$AAl?$AAs?$AA?2?$AAv?$AAc?$AA7?$AAl?$AAi?$AAb?$AAs?$AA?2?$AAs?$AAh?$AAi?$AAp?$AA?2?$AAa?$AAt?$AAl?$AAm?$AAf@ 100687f0     atlsd:atltime.obj
 0003:00007874       ??_C@_1M@HLGKFCJM@?$AAf?$AAa?$AAl?$AAs?$AAe?$AA?$AA@ 10068874     atlsd:atltime.obj
 0003:00007884       ??_C@_0DG@BLHODJEO@f?3?2dd?2vctools?2vc7libs?2ship?2atlmf@ 10068884     atlsd:atltime.obj
 0003:000078c4       ??_C@_0BF@IAAKIJDJ@AtlThrow?3?5hr?5?$DN?50x?$CFx?6?$AA@ 100688c4     atlsd:atltime.obj
 0003:000078e0       ??_C@_06JMICFIKN@?$CFs_?$CF0x?$AA@ 100688e0     atlsd:Externs.obj
 0003:000078e8       ??_C@_0CJ@CAALMDEI@AtlDebugAllocator_FileMappingNam@ 100688e8     atlsd:Externs.obj
 0003:0000791c       ??_C@_0CK@BODLKOMG@AtlTraceModuleManager_ProcessAdd@ 1006891c     atlsd:Externs.obj
 0003:00007950       ??_C@_1HO@MNFHLCLF@?$AAf?$AA?3?$AA?2?$AAd?$AAd?$AA?2?$AAv?$AAc?$AAt?$AAo?$AAo?$AAl?$AAs?$AA?2?$AAv?$AAc?$AA7?$AAl?$AAi?$AAb?$AAs?$AA?2?$AAs?$AAh?$AAi?$AAp?$AA?2?$AAa?$AAt?$AAl?$AAm?$AAf@ 10068950     atlsd:AtlDebugAPI.obj
 0003:000079e8       ??_C@_1BK@LIHAAANN@?$AAp?$AAM?$AAo?$AAd?$AAu?$AAl?$AAe?$AA?5?$AA?$CB?$AA?$DN?$AA?5?$AA0?$AA?$AA@ 100689e8     atlsd:AtlDebugAPI.obj
 0003:00007a08       ??_C@_1BM@DFEBCPM@?$AAp?$AAP?$AAr?$AAo?$AAc?$AAe?$AAs?$AAs?$AA?5?$AA?$CB?$AA?$DN?$AA?5?$AA0?$AA?$AA@ 10068a08     atlsd:AtlDebugAPI.obj
 0003:00007a2c       ??_C@_02DKCKIIND@?$CFs?$AA@ 10068a2c     atlsd:AtlDebugAPI.obj
 0003:00007a30       ??_C@_04FFDMEMDO@?$CFS?3?5?$AA@ 10068a30     atlsd:AtlDebugAPI.obj
 0003:00007a38       ??_C@_09IIMHCEDG@?$CFs?$CI?$CFd?$CJ?5?3?5?$AA@ 10068a38     atlsd:AtlDebugAPI.obj
 0003:00007a44       ??_C@_02KPKOKMHB@?$CFS?$AA@ 10068a44     atlsd:AtlDebugAPI.obj
 0003:00007a48       ??_C@_19JCANECJL@?$AA?$CF?$AAs?$AA?3?$AA?5?$AA?$AA@ 10068a48     atlsd:AtlDebugAPI.obj
 0003:00007a54       ??_C@_1BE@PGKGHBDF@?$AA?$CF?$AAS?$AA?$CI?$AA?$CF?$AAd?$AA?$CJ?$AA?5?$AA?3?$AA?5?$AA?$AA@ 10068a54     atlsd:AtlDebugAPI.obj
 0003:00007a6c       ??_C@_1DA@NMHCLMEJ@?$AAp?$AAA?$AAl?$AAl?$AAo?$AAc?$AAa?$AAt?$AAo?$AAr?$AA?9?$AA?$DO?$AAm?$AA_?$AAb?$AAS?$AAn?$AAa?$AAp?$AAs?$AAh?$AAo?$AAt?$AA?$AA@ 10068a6c     atlsd:AtlDebugAPI.obj
 0003:00007aa8       ??_C@_1CE@NDBHOLMF@?$AAp?$AAP?$AAr?$AAo?$AAc?$AAe?$AAs?$AAs?$AAI?$AAn?$AAf?$AAo?$AA?5?$AA?$CB?$AA?$DN?$AA?5?$AA0?$AA?$AA@ 10068aa8     atlsd:AtlDebugAPI.obj
 0003:00007ad4       ??_C@_1CC@ONKAHKMP@?$AAp?$AAM?$AAo?$AAd?$AAu?$AAl?$AAe?$AAI?$AAn?$AAf?$AAo?$AA?5?$AA?$CB?$AA?$DN?$AA?5?$AA0?$AA?$AA@ 10068ad4     atlsd:AtlDebugAPI.obj
 0003:00007afc       ??_C@_1CG@BANGGBIE@?$AAp?$AAC?$AAa?$AAt?$AAe?$AAg?$AAo?$AAr?$AAy?$AAI?$AAn?$AAf?$AAo?$AA?5?$AA?$CB?$AA?$DN?$AA?5?$AA0?$AA?$AA@ 10068afc     atlsd:AtlDebugAPI.obj
 0003:00007b2c       ??_C@_1BC@JOPFIJLO@?$AAp?$AAP?$AAr?$AAo?$AAc?$AAe?$AAs?$AAs?$AA?$AA@ 10068b2c     atlsd:AtlDebugAPI.obj
 0003:00007b44       ??_C@_1DM@CECLCIOA@?$AAp?$AAp?$AAC?$AAa?$AAt?$AAe?$AAg?$AAo?$AAr?$AAy?$AA?5?$AA?$CG?$AA?$CG?$AA?5?$AAp?$AAf?$AAn?$AAC?$AAr?$AAt?$AAD?$AAb?$AAg?$AAR?$AAe?$AAp?$AAo?$AAr?$AAt?$AA?$AA@ 10068b44     atlsd:AtlDebugAPI.obj
 0003:00007b90       ??_C@_1HA@EFGOBFOA@?$AAf?$AA?3?$AA?2?$AAd?$AAd?$AA?2?$AAv?$AAc?$AAt?$AAo?$AAo?$AAl?$AAs?$AA?2?$AAv?$AAc?$AA7?$AAl?$AAi?$AAb?$AAs?$AA?2?$AAs?$AAh?$AAi?$AAp?$AA?2?$AAa?$AAt?$AAl?$AAm?$AAf@ 10068b90     atlsd:AtlDebugAPI.obj
 0003:00007c18       ??_C@_1GI@CLJCGCPP@?$AAf?$AA?3?$AA?2?$AAd?$AAd?$AA?2?$AAv?$AAc?$AAt?$AAo?$AAo?$AAl?$AAs?$AA?2?$AAv?$AAc?$AA7?$AAl?$AAi?$AAb?$AAs?$AA?2?$AAs?$AAh?$AAi?$AAp?$AA?2?$AAa?$AAt?$AAl?$AAm?$AAf@ 10068c18     atlsd:AtlDebugAPI.obj
 0003:00007c94       ??_C@_0BA@MKMIKKJB@atlTraceGeneral?$AA@ 10068c94     atlsd:atltrace.obj
 0003:00007ca8       ??_C@_0M@DGPFJEBB@atlTraceCOM?$AA@ 10068ca8     atlsd:atltrace.obj
 0003:00007cb8       ??_C@_0L@LHELAKBP@atlTraceQI?$AA@ 10068cb8     atlsd:atltrace.obj
 0003:00007cc8       ??_C@_0BC@MALHFBAO@atlTraceRegistrar?$AA@ 10068cc8     atlsd:atltrace.obj
 0003:00007ce0       ??_C@_0BB@ILPPDKFL@atlTraceRefcount?$AA@ 10068ce0     atlsd:atltrace.obj
 0003:00007cf4       ??_C@_0BC@DGHHNKDC@atlTraceWindowing?$AA@ 10068cf4     atlsd:atltrace.obj
 0003:00007d0c       ??_C@_0BB@GHKJKKIE@atlTraceControls?$AA@ 10068d0c     atlsd:atltrace.obj
 0003:00007d20       ??_C@_0BA@DKOAAGGM@atlTraceHosting?$AA@ 10068d20     atlsd:atltrace.obj
 0003:00007d34       ??_C@_0BB@BEBMGMDO@atlTraceDBClient?$AA@ 10068d34     atlsd:atltrace.obj
 0003:00007d48       ??_C@_0BD@KOADKDIA@atlTraceDBProvider?$AA@ 10068d48     atlsd:atltrace.obj
 0003:00007d60       ??_C@_0P@LNEGBOLO@atlTraceSnapin?$AA@ 10068d60     atlsd:atltrace.obj
 0003:00007d74       ??_C@_0BA@MCBFIDIC@atlTraceNotImpl?$AA@ 10068d74     atlsd:atltrace.obj
 0003:00007d88       ??_C@_0BD@PJPCCAKP@atlTraceAllocation?$AA@ 10068d88     atlsd:atltrace.obj
 0003:00007da0       ??_C@_0BC@PGMFNIFA@atlTraceException?$AA@ 10068da0     atlsd:atltrace.obj
 0003:00007db8       ??_C@_0N@BNNILHBE@atlTraceTime?$AA@ 10068db8     atlsd:atltrace.obj
 0003:00007dc8       ??_C@_0O@MEOJAOKK@atlTraceCache?$AA@ 10068dc8     atlsd:atltrace.obj
 0003:00007dd8       ??_C@_0BA@IDBKCKK@atlTraceStencil?$AA@ 10068dd8     atlsd:atltrace.obj
 0003:00007dec       ??_C@_0P@MBNHGHMI@atlTraceString?$AA@ 10068dec     atlsd:atltrace.obj
 0003:00007e00       ??_C@_0M@IOBBMAHG@atlTraceMap?$AA@ 10068e00     atlsd:atltrace.obj
 0003:00007e10       ??_C@_0N@FEAAACHD@atlTraceUtil?$AA@ 10068e10     atlsd:atltrace.obj
 0003:00007e20       ??_C@_0BB@DNJDADMG@atlTraceSecurity?$AA@ 10068e20     atlsd:atltrace.obj
 0003:00007e34       ??_C@_0N@KLPNCFEE@atlTraceSync?$AA@ 10068e34     atlsd:atltrace.obj
 0003:00007e44       ??_C@_0O@KHOBHOBJ@atlTraceISAPI?$AA@ 10068e44     atlsd:atltrace.obj
 0003:00007e54       ??_C@_0N@BEIMPMHB@atlTraceUser?$AA@ 10068e54     atlsd:atltrace.obj
 0003:00007e64       ??_C@_0O@MKGGJJCH@atlTraceUser2?$AA@ 10068e64     atlsd:atltrace.obj
 0003:00007e74       ??_C@_0O@NDHNKIGG@atlTraceUser3?$AA@ 10068e74     atlsd:atltrace.obj
 0003:00007e84       ??_C@_0O@JMDMDOKB@atlTraceUser4?$AA@ 10068e84     atlsd:atltrace.obj
 0003:00007e94       ??_C@_1BC@PMINONJG@?$AAb?$AAS?$AAu?$AAc?$AAc?$AAe?$AAs?$AAs?$AA?$AA@ 10068e94     atlsd:Allocate.obj
 0003:00007eb0       ??_C@_1HI@MDMANKNC@?$AAf?$AA?3?$AA?2?$AAd?$AAd?$AA?2?$AAv?$AAc?$AAt?$AAo?$AAo?$AAl?$AAs?$AA?2?$AAv?$AAc?$AA7?$AAl?$AAi?$AAb?$AAs?$AA?2?$AAs?$AAh?$AAi?$AAp?$AA?2?$AAa?$AAt?$AAl?$AAm?$AAf@ 10068eb0     atlsd:Allocate.obj
 0003:00007f40       ??_C@_1DG@LHMNHOH@?$AA?$CB?$AAm?$AA_?$AAh?$AAM?$AAa?$AAp?$AA?5?$AA?$CG?$AA?$CG?$AA?5?$AA?$CB?$AAm?$AA_?$AAp?$AAB?$AAu?$AAf?$AAf?$AAe?$AAr?$AAS?$AAt?$AAa?$AAr?$AAt?$AA?$AA@ 10068f40     atlsd:Allocate.obj
 0003:00007f80       ??_C@_1CC@JCNIBNON@?$AAi?$AAM?$AAo?$AAd?$AAu?$AAl?$AAe?$AA?5?$AA?$DM?$AA?5?$AAm?$AAo?$AAd?$AAc?$AAn?$AAt?$AA?$AA@ 10068f80     atlsd:Allocate.obj
 0003:00007fa8       ??_C@_1HO@KONLCGL@?$AA?$CI?$AAi?$AAC?$AAa?$AAt?$AAe?$AAg?$AAo?$AAr?$AAy?$AA?5?$AA?$DM?$AA?5?$AAm?$AA_?$AAp?$AAP?$AAr?$AAo?$AAc?$AAe?$AAs?$AAs?$AA?9?$AA?$DO?$AAC?$AAa?$AAt?$AAe?$AAg?$AAo?$AAr@ 10068fa8     atlsd:Allocate.obj
 0003:00008040       ??_C@_1BG@EIHNOMMF@?$AAm?$AA_?$AAp?$AAP?$AAr?$AAo?$AAc?$AAe?$AAs?$AAs?$AA?$AA@ 10069040     atlsd:Allocate.obj
 0003:00008060       ??_C@_1IO@GJLKCBCE@?$AAf?$AA?3?$AA?2?$AAd?$AAd?$AA?2?$AAv?$AAc?$AAt?$AAo?$AAo?$AAl?$AAs?$AA?2?$AAv?$AAc?$AA7?$AAl?$AAi?$AAb?$AAs?$AA?2?$AAs?$AAh?$AAi?$AAp?$AA?2?$AAa?$AAt?$AAl?$AAm?$AAf@ 10069060     atlsd:Allocate.obj
 0003:0000810c       ??_C@_1BK@GFEAMNLJ@?$AAn?$AAC?$AAo?$AAo?$AAk?$AAi?$AAe?$AA?5?$AA?$CB?$AA?$DN?$AA?5?$AA0?$AA?$AA@ 1006910c     atlsd:Allocate.obj
 0003:0000812c       ??_C@_1BO@OAGIAJOK@?$AAp?$AAC?$AAa?$AAt?$AAe?$AAg?$AAo?$AAr?$AAy?$AA?5?$AA?$CB?$AA?$DN?$AA?5?$AA0?$AA?$AA@ 1006912c     atlsd:Allocate.obj
 0003:00008150       ??_C@_11LOCGONAA@?$AA?$AA@ 10069150     atlsd:AtlTraceModuleManager.obj
 0003:00008154       __pRawDllMain              10069154     mfcs90d:rawdllmainproxy.obj
 0003:00008158       ??_C@_0CO@JGJCIGFF@_pActualRawDllMain?5cannot?5be?5in?5@ 10069158     mfcs90d:rawdllmainproxy.obj
 0003:00008190       ??_C@_0CJ@MFBCOCLI@Microsoft?5Foundation?5Classes?5C?$CL?$CL@ 10069190     mfcs90d:rawdllmainproxy.obj
 0003:0000862c       ??_R4CAppOctetStream@@6B@  1006962c     AppOctetStream.obj
 0003:00008644       ??_R3CAppOctetStream@@8    10069644     AppOctetStream.obj
 0003:00008658       ??_R2CAppOctetStream@@8    10069658     AppOctetStream.obj
 0003:00008664       ??_R1A@?0A@EA@CAppOctetStream@@8 10069664     AppOctetStream.obj
 0003:00008688       ??_R1A@?0A@EA@CMIMEContentAgent@@8 10069688     AppOctetStream.obj
 0003:000086ac       ??_R3CMIMEContentAgent@@8  100696ac     AppOctetStream.obj
 0003:000086c0       ??_R2CMIMEContentAgent@@8  100696c0     AppOctetStream.obj
 0003:000086c8       ??_R4Thank_you@Define_the_symbol__ATL_MIXED@@6B@ 100696c8     AppOctetStream.obj
 0003:000086e0       ??_R3Thank_you@Define_the_symbol__ATL_MIXED@@8 100696e0     AppOctetStream.obj
 0003:000086f4       ??_R2Thank_you@Define_the_symbol__ATL_MIXED@@8 100696f4     AppOctetStream.obj
 0003:000086fc       ??_R1A@?0A@EA@Thank_you@Define_the_symbol__ATL_MIXED@@8 100696fc     AppOctetStream.obj
 0003:00008720       ??_R4CBase64@@6B@          10069720     Base64.obj
 0003:00008738       ??_R3CBase64@@8            10069738     Base64.obj
 0003:0000874c       ??_R2CBase64@@8            1006974c     Base64.obj
 0003:00008758       ??_R1A@?0A@EA@CBase64@@8   10069758     Base64.obj
 0003:0000877c       ??_R1A@?0A@EA@CMIMECode@@8 1006977c     Base64.obj
 0003:000087a0       ??_R3CMIMECode@@8          100697a0     Base64.obj
 0003:000087b4       ??_R2CMIMECode@@8          100697b4     Base64.obj
 0003:000087bc       ??_R4CCrashHandler@@6B@    100697bc     CrashHandler.obj
 0003:000087d4       ??_R3CCrashHandler@@8      100697d4     CrashHandler.obj
 0003:000087e8       ??_R2CCrashHandler@@8      100697e8     CrashHandler.obj
 0003:000087f0       ??_R1A@?0A@EA@CCrashHandler@@8 100697f0     CrashHandler.obj
 0003:00008814       ??_R4length_error@std@@6B@ 10069814     CrashHandler.obj
 0003:0000882c       ??_R3length_error@std@@8   1006982c     CrashHandler.obj
 0003:00008840       ??_R2length_error@std@@8   10069840     CrashHandler.obj
 0003:00008850       ??_R1A@?0A@EA@length_error@std@@8 10069850     CrashHandler.obj
 0003:00008874       ??_R1A@?0A@EA@logic_error@std@@8 10069874     CrashHandler.obj
 0003:00008898       ??_R3logic_error@std@@8    10069898     CrashHandler.obj
 0003:000088ac       ??_R2logic_error@std@@8    100698ac     CrashHandler.obj
 0003:000088b8       ??_R1A@?0A@EA@exception@std@@8 100698b8     CrashHandler.obj
 0003:000088dc       ??_R3exception@std@@8      100698dc     CrashHandler.obj
 0003:000088f0       ??_R2exception@std@@8      100698f0     CrashHandler.obj
 0003:000088f8       ??_R4logic_error@std@@6B@  100698f8     CrashHandler.obj
 0003:00008910       ??_R4bad_alloc@std@@6B@    10069910     CrashHandler.obj
 0003:00008928       ??_R3bad_alloc@std@@8      10069928     CrashHandler.obj
 0003:0000893c       ??_R2bad_alloc@std@@8      1006993c     CrashHandler.obj
 0003:00008948       ??_R1A@?0A@EA@bad_alloc@std@@8 10069948     CrashHandler.obj
 0003:0000896c       ??_R4CErrorReportApp@@6B@  1006996c     ErrorReport.obj
 0003:00008984       ??_R3CErrorReportApp@@8    10069984     ErrorReport.obj
 0003:00008998       ??_R2CErrorReportApp@@8    10069998     ErrorReport.obj
 0003:000089b4       ??_R1A@?0A@EA@CErrorReportApp@@8 100699b4     ErrorReport.obj
 0003:000089d8       ??_R1A@?0A@EA@CWinApp@@8   100699d8     ErrorReport.obj
 0003:000089fc       ??_R3CWinApp@@8            100699fc     ErrorReport.obj
 0003:00008a10       ??_R2CWinApp@@8            10069a10     ErrorReport.obj
 0003:00008a24       ??_R1A@?0A@EA@CWinThread@@8 10069a24     ErrorReport.obj
 0003:00008a48       ??_R3CWinThread@@8         10069a48     ErrorReport.obj
 0003:00008a5c       ??_R2CWinThread@@8         10069a5c     ErrorReport.obj
 0003:00008a6c       ??_R1A@?0A@EA@CCmdTarget@@8 10069a6c     ErrorReport.obj
 0003:00008a90       ??_R3CCmdTarget@@8         10069a90     ErrorReport.obj
 0003:00008aa4       ??_R2CCmdTarget@@8         10069aa4     ErrorReport.obj
 0003:00008ab0       ??_R1A@?0A@EA@CObject@@8   10069ab0     ErrorReport.obj
 0003:00008ad4       ??_R3CObject@@8            10069ad4     ErrorReport.obj
 0003:00008ae8       ??_R2CObject@@8            10069ae8     ErrorReport.obj
 0003:00008af0       ??_R4CHTTPUploadFile@@6B@  10069af0     HTTPUploadFile.obj
 0003:00008b08       ??_R3CHTTPUploadFile@@8    10069b08     HTTPUploadFile.obj
 0003:00008b1c       ??_R2CHTTPUploadFile@@8    10069b1c     HTTPUploadFile.obj
 0003:00008b24       ??_R1A@?0A@EA@CHTTPUploadFile@@8 10069b24     HTTPUploadFile.obj
 0003:00008b48       ??_R4CMailMessage@@6B@     10069b48     MailMessage.obj
 0003:00008b60       ??_R3CMailMessage@@8       10069b60     MailMessage.obj
 0003:00008b74       ??_R2CMailMessage@@8       10069b74     MailMessage.obj
 0003:00008b7c       ??_R1A@?0A@EA@CMailMessage@@8 10069b7c     MailMessage.obj
 0003:00008ba0       ??_R4?$CArray@VCRecipient@CMailMessage@@AAV12@@@6B@ 10069ba0     MailMessage.obj
 0003:00008bb8       ??_R3?$CArray@VCRecipient@CMailMessage@@AAV12@@@8 10069bb8     MailMessage.obj
 0003:00008bcc       ??_R2?$CArray@VCRecipient@CMailMessage@@AAV12@@@8 10069bcc     MailMessage.obj
 0003:00008bd8       ??_R1A@?0A@EA@?$CArray@VCRecipient@CMailMessage@@AAV12@@@8 10069bd8     MailMessage.obj
 0003:00008bfc       ??_R4CMainDlg@@6B@         10069bfc     MainDlg.obj
 0003:00008c14       ??_R3CMainDlg@@8           10069c14     MainDlg.obj
 0003:00008c28       ??_R2CMainDlg@@8           10069c28     MainDlg.obj
 0003:00008c44       ??_R1A@?0A@EA@CMainDlg@@8  10069c44     MainDlg.obj
 0003:00008c68       ??_R1A@?0A@EA@CDialog@@8   10069c68     MainDlg.obj
 0003:00008c8c       ??_R3CDialog@@8            10069c8c     MainDlg.obj
 0003:00008ca0       ??_R2CDialog@@8            10069ca0     MainDlg.obj
 0003:00008cb4       ??_R1A@?0A@EA@CWnd@@8      10069cb4     MainDlg.obj
 0003:00008cd8       ??_R3CWnd@@8               10069cd8     MainDlg.obj
 0003:00008cec       ??_R2CWnd@@8               10069cec     MainDlg.obj
 0003:00008cfc       ??_R4CMIMECode@@6B@        10069cfc     MIMECode.obj
 0003:00008d14       ??_R4CMIMEContentAgent@@6B@ 10069d14     MIMEContentAgent.obj
 0003:00008d2c       ??_R4CMIMEMessage@@6B@     10069d2c     MIMEMessage.obj
 0003:00008d44       ??_R3CMIMEMessage@@8       10069d44     MIMEMessage.obj
 0003:00008d58       ??_R2CMIMEMessage@@8       10069d58     MIMEMessage.obj
 0003:00008d64       ??_R1A@?0A@EA@CMIMEMessage@@8 10069d64     MIMEMessage.obj
 0003:00008d88       ??_R4CMIMETypeManager@CMIMEMessage@@6B@ 10069d88     MIMEMessage.obj
 0003:00008da0       ??_R3CMIMETypeManager@CMIMEMessage@@8 10069da0     MIMEMessage.obj
 0003:00008db4       ??_R2CMIMETypeManager@CMIMEMessage@@8 10069db4     MIMEMessage.obj
 0003:00008dbc       ??_R1A@?0A@EA@CMIMETypeManager@CMIMEMessage@@8 10069dbc     MIMEMessage.obj
 0003:00008de0       ??_R4?$CList@VCMIMEPart@CMIMEMessage@@AAV12@@@6B@ 10069de0     MIMEMessage.obj
 0003:00008df8       ??_R3?$CList@VCMIMEPart@CMIMEMessage@@AAV12@@@8 10069df8     MIMEMessage.obj
 0003:00008e0c       ??_R2?$CList@VCMIMEPart@CMIMEMessage@@AAV12@@@8 10069e0c     MIMEMessage.obj
 0003:00008e18       ??_R1A@?0A@EA@?$CList@VCMIMEPart@CMIMEMessage@@AAV12@@@8 10069e18     MIMEMessage.obj
 0003:00008e3c       ??_R4?$CList@PAVCMIMEContentAgent@@PAV1@@@6B@ 10069e3c     MIMEMessage.obj
 0003:00008e54       ??_R3?$CList@PAVCMIMEContentAgent@@PAV1@@@8 10069e54     MIMEMessage.obj
 0003:00008e68       ??_R2?$CList@PAVCMIMEContentAgent@@PAV1@@@8 10069e68     MIMEMessage.obj
 0003:00008e74       ??_R1A@?0A@EA@?$CList@PAVCMIMEContentAgent@@PAV1@@@8 10069e74     MIMEMessage.obj
 0003:00008e98       ??_R4CSMTP@@6B@            10069e98     SMTP.obj
 0003:00008eb0       ??_R3CSMTP@@8              10069eb0     SMTP.obj
 0003:00008ec4       ??_R2CSMTP@@8              10069ec4     SMTP.obj
 0003:00008ecc       ??_R1A@?0A@EA@CSMTP@@8     10069ecc     SMTP.obj
 0003:00008ef0       ??_R4CTextPlain@@6B@       10069ef0     TextPlain.obj
 0003:00008f08       ??_R3CTextPlain@@8         10069f08     TextPlain.obj
 0003:00008f1c       ??_R2CTextPlain@@8         10069f1c     TextPlain.obj
 0003:00008f28       ??_R1A@?0A@EA@CTextPlain@@8 10069f28     TextPlain.obj
 0003:00008f4c       ??_R4CZLib@@6B@            10069f4c     zlibcpp.obj
 0003:00008f64       ??_R3CZLib@@8              10069f64     zlibcpp.obj
 0003:00008f78       ??_R2CZLib@@8              10069f78     zlibcpp.obj
 0003:00008f80       ??_R1A@?0A@EA@CZLib@@8     10069f80     zlibcpp.obj
 0003:00008fa4       ??_R4_AFX_DLL_MODULE_STATE@@6B@ 10069fa4     mfcs90d:dllmodul.obj
 0003:00008fbc       ??_R3_AFX_DLL_MODULE_STATE@@8 10069fbc     mfcs90d:dllmodul.obj
 0003:00008fd0       ??_R2_AFX_DLL_MODULE_STATE@@8 10069fd0     mfcs90d:dllmodul.obj
 0003:00008fe0       ??_R1A@?0A@EA@_AFX_DLL_MODULE_STATE@@8 10069fe0     mfcs90d:dllmodul.obj
 0003:00009004       ??_R1A@?0A@EA@AFX_MODULE_STATE@@8 1006a004     mfcs90d:dllmodul.obj
 0003:00009028       ??_R3AFX_MODULE_STATE@@8   1006a028     mfcs90d:dllmodul.obj
 0003:0000903c       ??_R2AFX_MODULE_STATE@@8   1006a03c     mfcs90d:dllmodul.obj
 0003:00009048       ??_R1A@?0A@EA@CNoTrackObject@@8 1006a048     mfcs90d:dllmodul.obj
 0003:0000906c       ??_R3CNoTrackObject@@8     1006a06c     mfcs90d:dllmodul.obj
 0003:00009080       ??_R2CNoTrackObject@@8     1006a080     mfcs90d:dllmodul.obj
 0003:00009088       ??_R4type_info@@6B@        1006a088     msvcrtd:ti_inst.obj
 0003:000090a0       ??_R3type_info@@8          1006a0a0     msvcrtd:ti_inst.obj
 0003:000090b4       ??_R2type_info@@8          1006a0b4     msvcrtd:ti_inst.obj
 0003:000090bc       ??_R1A@?0A@EA@type_info@@8 1006a0bc     msvcrtd:ti_inst.obj
 0003:00009228       ___rtc_iaa                 1006a228     msvcrtd:_initsect_.obj
 0003:00009430       ___rtc_izz                 1006a430     msvcrtd:_initsect_.obj
 0003:00009534       ___rtc_taa                 1006a534     msvcrtd:_initsect_.obj
 0003:0000973c       ___rtc_tzz                 1006a73c     msvcrtd:_initsect_.obj
 0003:0000a098       __TI3?AVlength_error@std@@ 1006b098     CrashHandler.obj
 0003:0000a0dc       __CTA3?AVlength_error@std@@ 1006b0dc     CrashHandler.obj
 0003:0000a0f0       __CT??_R0?AVlength_error@std@@@8??0length_error@std@@QAE@ABV01@@Z44 1006b0f0     CrashHandler.obj
 0003:0000a110       __CT??_R0?AVlogic_error@std@@@8??0logic_error@std@@QAE@ABV01@@Z44 1006b110     CrashHandler.obj
 0003:0000a130       __CT??_R0?AVexception@std@@@8??0exception@std@@QAE@ABV01@@Z12 1006b130     CrashHandler.obj
 0003:0000a494       __TI2?AVbad_alloc@std@@    1006b494     CrashHandler.obj
 0003:0000a4a8       __CTA2?AVbad_alloc@std@@   1006b4a8     CrashHandler.obj
 0003:0000a4b8       __CT??_R0?AVbad_alloc@std@@@8??0bad_alloc@std@@QAE@ABV01@@Z12 1006b4b8     CrashHandler.obj
 0003:0000bf08       __TI1?AVCAtlException@ATL@@ 1006cf08     atlsd:Externs.obj
 0003:0000bf1c       __CTA1?AVCAtlException@ATL@@ 1006cf1c     atlsd:Externs.obj
 0003:0000bf24       __CT??_R0?AVCAtlException@ATL@@@84 1006cf24     atlsd:Externs.obj
 0003:0000c4a0       ___pobjMapEntryFirst       1006d4a0     CrashHandler.obj
 0003:0000c5a4       ___pobjMapEntryLast        1006d5a4     CrashHandler.obj
 0004:00000000       __pIncludeInitManaged      1006e000     AppOctetStream.obj
 0004:00000050       ??_R0?AVCAppOctetStream@@@8 1006e050     AppOctetStream.obj
 0004:00000074       ??_R0?AVCMIMEContentAgent@@@8 1006e074     AppOctetStream.obj
 0004:0000009c       ?__LINE__Var@?1??AppendPart@CAppOctetStream@@UAEHPBD0HHAAV?$CStringT@DV?$StrTraitMFC_DLL@DV?$ChTraitsCRT@D@ATL@@@@@ATL@@@Z@4JA 1006e09c     AppOctetStream.obj
 0004:000000a0       ?__LINE__Var@?1??attach_file@CAppOctetStream@@MAEXPAVCStdioFile@@HAAV?$CStringT@DV?$StrTraitMFC_DLL@DV?$ChTraitsCRT@D@ATL@@@@@ATL@@@Z@4JA 1006e0a0     AppOctetStream.obj
 0004:000000a4       ??_R0PAVCMemoryException@@@8 1006e0a4     AppOctetStream.obj
 0004:000000cc       ??_R0PAVCFileException@@@8 1006e0cc     AppOctetStream.obj
 0004:000000f0       ??_R0?AUThank_you@Define_the_symbol__ATL_MIXED@@@8 1006e0f0     AppOctetStream.obj
 0004:00000168       ?m_nMask@CBase64@@1PAHA    1006e168     Base64.obj
 0004:000001a0       ??_R0?AVCBase64@@@8        1006e1a0     Base64.obj
 0004:000001bc       ??_R0?AVCMIMECode@@@8      1006e1bc     Base64.obj
 0004:000001d8       ?__LINE__Var@?1??Encode@CBase64@@UAE?AV?$CStringT@DV?$StrTraitMFC_DLL@DV?$ChTraitsCRT@D@ATL@@@@@ATL@@PBDH@Z@4JA 1006e1d8     Base64.obj
 0004:000001dc       ?__LINE__Var@?1??Decode@CBase64@@UAEHPBDPAD@Z@4JA 1006e1dc     Base64.obj
 0004:000001ec       ?__LINE__Var@?1???0CCrashHandler@@QAE@PBD000@Z@4JA 1006e1ec     CrashHandler.obj
 0004:000001f0       ??_R0?AVCCrashHandler@@@8  1006e1f0     CrashHandler.obj
 0004:00000214       ?__LINE__Var@?1??Open@CRegKey@ATL@@QAEJPAUHKEY__@@PBDK@Z@4JA 1006e214     CrashHandler.obj
 0004:00000218       ?__LINE__Var@?1??QueryStringValue@CRegKey@ATL@@QAEJPBDPADPAK@Z@4JA 1006e218     CrashHandler.obj
 0004:0000021c       ?__LINE__Var@?1??GetOsVersion@@YAHAAKPAK11PADH@Z@4JA 1006e21c     CrashHandler.obj
 0004:00000220       ??_R0?AVlength_error@std@@@8 1006e220     CrashHandler.obj
 0004:00000248       ??_R0?AVlogic_error@std@@@8 1006e248     CrashHandler.obj
 0004:0000026c       ??_R0?AVexception@std@@@8  1006e26c     CrashHandler.obj
 0004:00000290       ??_R0?AVbad_alloc@std@@@8  1006e290     CrashHandler.obj
 0004:000002c0       ??_R0?AVCErrorReportApp@@@8 1006e2c0     ErrorReport.obj
 0004:000002e4       ??_R0?AVCWinApp@@@8        1006e2e4     ErrorReport.obj
 0004:00000300       ??_R0?AVCWinThread@@@8     1006e300     ErrorReport.obj
 0004:00000320       ??_R0?AVCCmdTarget@@@8     1006e320     ErrorReport.obj
 0004:00000340       ??_R0?AVCObject@@@8        1006e340     ErrorReport.obj
 0004:00000360       ?__LINE__Var@?1??A2WBSTR@@YAPA_WPBDH@Z@4JA 1006e360     excprpt.obj
 0004:00000368       ??_R0?AVCHTTPUploadFile@@@8 1006e368     HTTPUploadFile.obj
 0004:000003d4       ??_R0?AVCMailMessage@@@8   1006e3d4     MailMessage.obj
 0004:000003f4       ?__LINE__Var@?1??AddRecipient@CMailMessage@@QAEHPBD0W4RECIPIENTS_TYPE@2@@Z@4JA 1006e3f4     MailMessage.obj
 0004:000003f8       ?__LINE__Var@?1??AddMultipleRecipients@CMailMessage@@QAEHPBDW4RECIPIENTS_TYPE@2@@Z@4JA 1006e3f8     MailMessage.obj
 0004:000003fc       ??_R0?AV?$CArray@VCRecipient@CMailMessage@@AAV12@@@@8 1006e3fc     MailMessage.obj
 0004:0000044c       ??_R0?AVCMainDlg@@@8       1006e44c     MainDlg.obj
 0004:00000468       ??_R0?AVCDialog@@@8        1006e468     MainDlg.obj
 0004:00000484       ??_R0?AVCWnd@@@8           1006e484     MainDlg.obj
 0004:00000578       ?__LINE__Var@?1???0CMIMEMessage@@QAE@XZ@4JA 1006e578     MIMEMessage.obj
 0004:0000057c       ??_R0?AVCMIMEMessage@@@8   1006e57c     MIMEMessage.obj
 0004:0000059c       ?__LINE__Var@?1??register_mime_type@CMIMEMessage@@IAEXPAVCMIMEContentAgent@@@Z@4JA 1006e59c     MIMEMessage.obj
 0004:000005a0       ??_R0?AVCMIMETypeManager@CMIMEMessage@@@8 1006e5a0     MIMEMessage.obj
 0004:000005d4       ?__LINE__Var@?1??RegisterMIMEType@CMIMETypeManager@CMIMEMessage@@QAEXPAVCMIMEContentAgent@@@Z@4JA 1006e5d4     MIMEMessage.obj
 0004:000005d8       ??_R0?AV?$CList@VCMIMEPart@CMIMEMessage@@AAV12@@@@8 1006e5d8     MIMEMessage.obj
 0004:00000618       ??_R0?AV?$CList@PAVCMIMEContentAgent@@PAV1@@@@8 1006e618     MIMEMessage.obj
 0004:00000694       ?response_table@CSMTP@@1PAUresponse_code@1@A 1006e694     SMTP.obj
 0004:000006e4       ?__LINE__Var@?1???0CSMTP@@QAE@PBDI@Z@4JA 1006e6e4     SMTP.obj
 0004:000006e8       ??_R0?AVCSMTP@@@8          1006e6e8     SMTP.obj
 0004:00000700       ?__LINE__Var@?1??Connect@CSMTP@@QAEHXZ@4JA 1006e700     SMTP.obj
 0004:00000704       ??_R0PAVCException@@@8     1006e704     SMTP.obj
 0004:00000724       ?__LINE__Var@?1??ConnectEx@CSMTP@@QAEHXZ@4JA 1006e724     SMTP.obj
 0004:00000728       ?__LINE__Var@?1??SendMessageA@CSMTP@@QAEHPAVCMailMessage@@@Z@4JA 1006e728     SMTP.obj
 0004:0000072c       ?__LINE__Var@?1??FormatMailMessage@CSMTP@@UAEHPAVCMailMessage@@@Z@4JA 1006e72c     SMTP.obj
 0004:00000730       ?__LINE__Var@?1??SetServerProperties@CSMTP@@QAEXPBDI@Z@4JA 1006e730     SMTP.obj
 0004:00000734       ?__LINE__Var@?1??cook_body@CSMTP@@AAE?AV?$CStringT@DV?$StrTraitMFC_DLL@DV?$ChTraitsCRT@D@ATL@@@@@ATL@@PAVCMailMessage@@@Z@4JA 1006e734     SMTP.obj
 0004:00000738       ?__LINE__Var@?1??transmit_message@CSMTP@@MAEHPAVCMailMessage@@@Z@4JA 1006e738     SMTP.obj
 0004:0000073c       ?__LINE__Var@?1??get_response@CSMTP@@AAEHI@Z@4JA 1006e73c     SMTP.obj
 0004:00000788       ??_R0?AVCTextPlain@@@8     1006e788     TextPlain.obj
 0004:000007a8       ?__LINE__Var@?1??wrap_text@CTextPlain@@IAE?AV?$CStringT@DV?$StrTraitMFC_DLL@DV?$ChTraitsCRT@D@ATL@@@@@ATL@@PBD@Z@4JA 1006e7a8     TextPlain.obj
 0004:000007ac       ??_R0?AVCZLib@@@8          1006e7ac     zlibcpp.obj
 0004:000007c4       ??_R0?AV_AFX_DLL_MODULE_STATE@@@8 1006e7c4     mfcs90d:dllmodul.obj
 0004:000007f0       ??_R0?AVAFX_MODULE_STATE@@@8 1006e7f0     mfcs90d:dllmodul.obj
 0004:00000818       ??_R0?AVCNoTrackObject@@@8 1006e818     mfcs90d:dllmodul.obj
 0004:0000083c       ??_R0?AVtype_info@@@8      1006e83c     msvcrtd:ti_inst.obj
 0004:00000858       ___security_cookie         1006e858     msvcrtd:gs_cookie.obj
 0004:0000085c       ___security_cookie_complement 1006e85c     msvcrtd:gs_cookie.obj
 0004:00000860       ?_RTC_ErrorLevels@@3PAHA   1006e860     msvcrtd:_error_.obj
 0004:00000878       ___native_dllmain_reason   1006e878     msvcrtd:natstart.obj
 0004:0000087c       ___native_vcclrit_reason   1006e87c     msvcrtd:natstart.obj
 0004:00000888       ?g_pszUpdateEventName@@3PBDB 1006e888     atlsd:Externs.obj
 0004:0000088c       ?g_pszAllocFileMapName@@3PBDB 1006e88c     atlsd:Externs.obj
 0004:00000890       ?g_pszKernelObjFmt@@3PBDB  1006e890     atlsd:Externs.obj
 0004:00000898       ??_R0?AVCAtlException@ATL@@@8 1006e898     atlsd:Externs.obj
 0004:000009f8       ?s_pfnPrevHook@CNoUIAssertHook@ATL@@0P6AHHPADPAH@ZA 1006e9f8     AppOctetStream.obj
 0004:000009fc       ?m_bInitFailed@CAtlBaseModule@ATL@@2_NA 1006e9fc     AppOctetStream.obj
 0004:00000a00       ?s_pLog@CFixedStringMgr@ATL@@2PAVIFixedStringLog@2@A 1006ea00     AppOctetStream.obj
 0004:00000a04       ?clash@Define_the_symbol__ATL_MIXED@@3UThank_you@1@A 1006ea04     AppOctetStream.obj
 0004:00000a08       ?clash@Inconsistent_definition_of_symbol__ATL_MIXED@@3U_Please_define_it_the_same_throughout_your_project@1@A 1006ea08     AppOctetStream.obj
 0004:00000a0c       ?m_sBase64Alphabet@CBase64@@1V?$CStringT@DV?$StrTraitMFC_DLL@DV?$ChTraitsCRT@D@ATL@@@@@ATL@@A 1006ea0c     Base64.obj
 0004:00000a70       ?g_bUserDoing@@3_NA        1006ea70     CrashHandler.obj
 0004:00000a74       ?g_179id@@3IA              1006ea74     CrashHandler.obj
 0004:00000a78       ?g_flashVersion@@3IA       1006ea78     CrashHandler.obj
 0004:00000a7c       ?g_pBusCmd@@3PAXA          1006ea7c     CrashHandler.obj
 0004:00000a80       ?g_pNetCmd@@3PAXA          1006ea80     CrashHandler.obj
 0004:00000a84       ?_crashStateMap@@3V?$CSimpleMap@HPAVCCrashHandler@@V?$CSimpleMapEqualHelper@HPAVCCrashHandler@@@ATL@@@ATL@@A 1006ea84     CrashHandler.obj
 0004:00000aac       ?_pAtlAutoThreadModule@ATL@@3PAUIAtlAutoThreadModule@1@A 1006eaac     CrashHandler.obj
 0004:00000ab0       ?_pPerfRegFunc@ATL@@3P6AJPAUHINSTANCE__@@@ZA 1006eab0     CrashHandler.obj
 0004:00000ab4       ?_pPerfUnRegFunc@ATL@@3P6AJXZA 1006eab4     CrashHandler.obj
 0004:00000ab8       ?_AtlRegisterPerUser@ATL@@3_NA 1006eab8     CrashHandler.obj
 0004:00000abc       ?_pAtlModule@ATL@@3PAVCAtlModule@1@A 1006eabc     CrashHandler.obj
 0004:00000ac0       ?m_libid@CAtlModule@ATL@@2U_GUID@@A 1006eac0     CrashHandler.obj
 0004:00000ad4       ?_pModule@ATL@@3PAVCComModule@1@A 1006ead4     CrashHandler.obj
 0004:00000ad8       ?ATL_CREATE_OBJECT@CComApartment@ATL@@2IA 1006ead8     CrashHandler.obj
 0004:00000b40       ?g_pImpl@@3PAVCCrashHandler@@A 1006eb40     CrashRpt.obj
 0004:00000b44       ?g_ReportOption@@3UtagREPORTOPTION@@A 1006eb44     CrashRpt.obj
 0004:00000b88       ?theApp@@3VCErrorReportApp@@A 1006eb88     ErrorReport.obj
 0004:00000cb0       ?m_sModule@CExceptionReport@@0V?$CStringT@DV?$StrTraitMFC_DLL@DV?$ChTraitsCRT@D@ATL@@@@@ATL@@A 1006ecb0     excprpt.obj
 0004:00000cb4       ?m_sException@CExceptionReport@@0V?$CStringT@DV?$StrTraitMFC_DLL@DV?$ChTraitsCRT@D@ATL@@@@@ATL@@A 1006ecb4     excprpt.obj
 0004:00000cb8       ?m_sAddress@CExceptionReport@@0V?$CStringT@DV?$StrTraitMFC_DLL@DV?$ChTraitsCRT@D@ATL@@@@@ATL@@A 1006ecb8     excprpt.obj
 0004:00001228       ?m_MIMETypeManager@CMIMEMessage@@0VCMIMETypeManager@1@A 1006f228     MIMEMessage.obj
 0004:000012f4       __afxForceEXCLUDE          1006f2f4     mfcs90d:nolib.obj
 0004:000012f8       ?WM_DESTROYMODELESS@CDHtmlDialog@@1IA 1006f2f8     mfcs90d:nolib.obj
 0004:000012fc       ?__mixedModuleStartup@@3HA 1006f2fc     mfcs90d:dllmodul.obj
 0004:00001300       __afxForceUSRDLL           1006f300     mfcs90d:dllmodul.obj
 0004:000013e8       __afxForceSTDAFX           1006f3e8     mfcs90d:stdafx.obj
 0004:00001400       ?wsprintffp@@3P6AHPADPBDZZA 1006f400     msvcrtd:_error_.obj
 0004:000017cc       __forceCRTManifestRTM      1006f7cc     msvcrtd:crtmanifestrtm.obj
 0004:000017d0       ?__type_info_root_node@@3U__type_info_node@@A 1006f7d0     msvcrtd:tncleanup.obj
 0004:000017e8       ?g_Allocator@@3VCAtlAllocator@@A 1006f7e8     atlsd:Externs.obj
 0004:0000181c       ?s_trace@CTrace@ATL@@2V12@A 1006f81c     atlsd:Externs.obj
 0004:00001830       ?atlTraceGeneral@ATL@@3VCTraceCategory@1@A 1006f830     atlsd:atltrace.obj
 0004:00001834       ?atlTraceCOM@ATL@@3VCTraceCategory@1@A 1006f834     atlsd:atltrace.obj
 0004:00001838       ?atlTraceQI@ATL@@3VCTraceCategory@1@A 1006f838     atlsd:atltrace.obj
 0004:0000183c       ?atlTraceRegistrar@ATL@@3VCTraceCategory@1@A 1006f83c     atlsd:atltrace.obj
 0004:00001840       ?atlTraceRefcount@ATL@@3VCTraceCategory@1@A 1006f840     atlsd:atltrace.obj
 0004:00001844       ?atlTraceWindowing@ATL@@3VCTraceCategory@1@A 1006f844     atlsd:atltrace.obj
 0004:00001848       ?atlTraceControls@ATL@@3VCTraceCategory@1@A 1006f848     atlsd:atltrace.obj
 0004:0000184c       ?atlTraceHosting@ATL@@3VCTraceCategory@1@A 1006f84c     atlsd:atltrace.obj
 0004:00001850       ?atlTraceDBClient@ATL@@3VCTraceCategory@1@A 1006f850     atlsd:atltrace.obj
 0004:00001854       ?atlTraceDBProvider@ATL@@3VCTraceCategory@1@A 1006f854     atlsd:atltrace.obj
 0004:00001858       ?atlTraceSnapin@ATL@@3VCTraceCategory@1@A 1006f858     atlsd:atltrace.obj
 0004:0000185c       ?atlTraceNotImpl@ATL@@3VCTraceCategory@1@A 1006f85c     atlsd:atltrace.obj
 0004:00001860       ?atlTraceAllocation@ATL@@3VCTraceCategory@1@A 1006f860     atlsd:atltrace.obj
 0004:00001864       ?atlTraceException@ATL@@3VCTraceCategory@1@A 1006f864     atlsd:atltrace.obj
 0004:00001868       ?atlTraceTime@ATL@@3VCTraceCategory@1@A 1006f868     atlsd:atltrace.obj
 0004:0000186c       ?atlTraceCache@ATL@@3VCTraceCategory@1@A 1006f86c     atlsd:atltrace.obj
 0004:00001870       ?atlTraceStencil@ATL@@3VCTraceCategory@1@A 1006f870     atlsd:atltrace.obj
 0004:00001874       ?atlTraceString@ATL@@3VCTraceCategory@1@A 1006f874     atlsd:atltrace.obj
 0004:00001878       ?atlTraceMap@ATL@@3VCTraceCategory@1@A 1006f878     atlsd:atltrace.obj
 0004:0000187c       ?atlTraceUtil@ATL@@3VCTraceCategory@1@A 1006f87c     atlsd:atltrace.obj
 0004:00001880       ?atlTraceSecurity@ATL@@3VCTraceCategory@1@A 1006f880     atlsd:atltrace.obj
 0004:00001884       ?atlTraceSync@ATL@@3VCTraceCategory@1@A 1006f884     atlsd:atltrace.obj
 0004:00001888       ?atlTraceISAPI@ATL@@3VCTraceCategory@1@A 1006f888     atlsd:atltrace.obj
 0004:0000188c       ?atlTraceUser@ATL@@3VCTraceCategory@1@A 1006f88c     atlsd:atltrace.obj
 0004:00001890       ?atlTraceUser2@ATL@@3VCTraceCategory@1@A 1006f890     atlsd:atltrace.obj
 0004:00001894       ?atlTraceUser3@ATL@@3VCTraceCategory@1@A 1006f894     atlsd:atltrace.obj
 0004:00001898       ?atlTraceUser4@ATL@@3VCTraceCategory@1@A 1006f898     atlsd:atltrace.obj
 0004:000018b4       __adjust_fdiv              1006f8b4     <common>
 0004:000018c0       ___native_startup_state    1006f8c0     <common>
 0004:000018d0       ___native_startup_lock     1006f8d0     <common>
 0004:000018d4       ___dyn_tls_init_callback   1006f8d4     <common>
 0004:000018e0       ___onexitend               1006f8e0     <common>
 0004:000018f0       ___onexitbegin             1006f8f0     <common>
 0005:00000000       __IMPORT_DESCRIPTOR_CommonLibraryd 10070000     commonlibraryd:CommonLibraryd.dll
 0005:00000014       __IMPORT_DESCRIPTOR_WININET 10070014     WinInet:WININET.dll
 0005:00000028       __IMPORT_DESCRIPTOR_zlib   10070028     zipl:zipl.dll
 0005:0000003c       __IMPORT_DESCRIPTOR_mfc90d 1007003c     mfc90d:mfc90d.dll
 0005:00000050       __IMPORT_DESCRIPTOR_MSVCR90D 10070050     msvcrtd:MSVCR90D.dll
 0005:00000064       __IMPORT_DESCRIPTOR_KERNEL32 10070064     kernel32:KERNEL32.dll
 0005:00000078       __IMPORT_DESCRIPTOR_USER32 10070078     user32:USER32.dll
 0005:0000008c       __IMPORT_DESCRIPTOR_GDI32  1007008c     gdi32:GDI32.dll
 0005:000000a0       __IMPORT_DESCRIPTOR_ADVAPI32 100700a0     advapi32:ADVAPI32.dll
 0005:000000b4       __IMPORT_DESCRIPTOR_ole32  100700b4     ole32:ole32.dll
 0005:000000c8       __IMPORT_DESCRIPTOR_OLEAUT32 100700c8     oleaut32:OLEAUT32.dll
 0005:000000dc       __IMPORT_DESCRIPTOR_MSVCP90D 100700dc     msvcprtd:MSVCP90D.dll
 0005:000000f0       __IMPORT_DESCRIPTOR_dbghelp 100700f0     dbghelp:dbghelp.dll
 0005:00000104       __IMPORT_DESCRIPTOR_WSOCK32 10070104     wsock32:WSOCK32.dll
 0005:00000118       __NULL_IMPORT_DESCRIPTOR   10070118     commonlibraryd:CommonLibraryd.dll
 0005:00000c90       __imp__OpenThreadToken@16  10070c90     advapi32:ADVAPI32.dll
 0005:00000c94       __imp__RegOpenKeyExA@20    10070c94     advapi32:ADVAPI32.dll
 0005:00000c98       __imp__RegQueryValueExA@24 10070c98     advapi32:ADVAPI32.dll
 0005:00000c9c       __imp__RevertToSelf@0      10070c9c     advapi32:ADVAPI32.dll
 0005:00000ca0       __imp__SetThreadToken@8    10070ca0     advapi32:ADVAPI32.dll
 0005:00000ca4       __imp__RegCloseKey@4       10070ca4     advapi32:ADVAPI32.dll
 0005:00000ca8       \177ADVAPI32_NULL_THUNK_DATA 10070ca8     advapi32:ADVAPI32.dll
 0005:00000cd8       __imp_?Get179AppPath@systemhelper@utility@common@@YA?AV?$basic_string@_WU?$char_traits@_W@std@@V?$allocator@_W@2@@std@@XZ 10070cd8     commonlibraryd:CommonLibraryd.dll
 0005:00000cdc       __imp_?UnicodeToAscii@stringhelper@utility@common@@YA?AV?$basic_string@DU?$char_traits@D@std@@V?$allocator@D@2@@std@@ABV?$basic_string@_WU?$char_traits@_W@std@@V?$allocator@_W@2@@5@@Z 10070cdc     commonlibraryd:CommonLibraryd.dll
 0005:00000ce0       \177CommonLibraryd_NULL_THUNK_DATA 10070ce0     commonlibraryd:CommonLibraryd.dll
 0005:00000d0c       __imp__DeleteObject@4      10070d0c     gdi32:GDI32.dll
 0005:00000d10       \177GDI32_NULL_THUNK_DATA  10070d10     gdi32:GDI32.dll
 0005:00000d3c       __imp__SetUnhandledExceptionFilter@4 10070d3c     kernel32:KERNEL32.dll
 0005:00000d40       __imp__CloseHandle@4       10070d40     kernel32:KERNEL32.dll
 0005:00000d44       __imp__CreateFileA@28      10070d44     kernel32:KERNEL32.dll
 0005:00000d48       __imp__GetPrivateProfileStringA@24 10070d48     kernel32:KERNEL32.dll
 0005:00000d4c       __imp__GetTempPathA@8      10070d4c     kernel32:KERNEL32.dll
 0005:00000d50       __imp__GetLocalTime@4      10070d50     kernel32:KERNEL32.dll
 0005:00000d54       __imp__lstrcpynA@12        10070d54     kernel32:KERNEL32.dll
 0005:00000d58       __imp__GetVersionExA@4     10070d58     kernel32:KERNEL32.dll
 0005:00000d5c       __imp__TerminateProcess@8  10070d5c     kernel32:KERNEL32.dll
 0005:00000d60       __imp__OpenProcess@12      10070d60     kernel32:KERNEL32.dll
 0005:00000d64       __imp__GetCurrentProcessId@0 10070d64     kernel32:KERNEL32.dll
 0005:00000d68       __imp__CopyFileA@12        10070d68     kernel32:KERNEL32.dll
 0005:00000d6c       __imp__InterlockedDecrement@4 10070d6c     kernel32:KERNEL32.dll
 0005:00000d70       __imp__InterlockedIncrement@4 10070d70     kernel32:KERNEL32.dll
 0005:00000d74       __imp__OpenFileMappingA@12 10070d74     kernel32:KERNEL32.dll
 0005:00000d78       __imp__GetCurrentThread@0  10070d78     kernel32:KERNEL32.dll
 0005:00000d7c       __imp__CreateFileMappingA@24 10070d7c     kernel32:KERNEL32.dll
 0005:00000d80       __imp__MapViewOfFile@20    10070d80     kernel32:KERNEL32.dll
 0005:00000d84       __imp__UnmapViewOfFile@4   10070d84     kernel32:KERNEL32.dll
 0005:00000d88       __imp__VirtualAlloc@16     10070d88     kernel32:KERNEL32.dll
 0005:00000d8c       __imp__OutputDebugStringW@4 10070d8c     kernel32:KERNEL32.dll
 0005:00000d90       __imp__OpenEventA@12       10070d90     kernel32:KERNEL32.dll
 0005:00000d94       __imp__SetEvent@4          10070d94     kernel32:KERNEL32.dll
 0005:00000d98       __imp__MulDiv@12           10070d98     kernel32:KERNEL32.dll
 0005:00000d9c       __imp__LocalFileTimeToFileTime@8 10070d9c     kernel32:KERNEL32.dll
 0005:00000da0       __imp__RaiseException@16   10070da0     kernel32:KERNEL32.dll
 0005:00000da4       __imp__OutputDebugStringA@4 10070da4     kernel32:KERNEL32.dll
 0005:00000da8       __imp__DebugBreak@0        10070da8     kernel32:KERNEL32.dll
 0005:00000dac       __imp__GetCurrentProcess@0 10070dac     kernel32:KERNEL32.dll
 0005:00000db0       __imp__GetCurrentThreadId@0 10070db0     kernel32:KERNEL32.dll
 0005:00000db4       __imp__WriteFile@20        10070db4     kernel32:KERNEL32.dll
 0005:00000db8       __imp__GetModuleFileNameA@12 10070db8     kernel32:KERNEL32.dll
 0005:00000dbc       __imp__FileTimeToLocalFileTime@8 10070dbc     kernel32:KERNEL32.dll
 0005:00000dc0       __imp__GetSystemInfo@4     10070dc0     kernel32:KERNEL32.dll
 0005:00000dc4       __imp__GetFileSize@8       10070dc4     kernel32:KERNEL32.dll
 0005:00000dc8       __imp__CreateFileW@28      10070dc8     kernel32:KERNEL32.dll
 0005:00000dcc       __imp__GetLastError@0      10070dcc     kernel32:KERNEL32.dll
 0005:00000dd0       __imp__LocalFree@4         10070dd0     kernel32:KERNEL32.dll
 0005:00000dd4       __imp__LocalAlloc@8        10070dd4     kernel32:KERNEL32.dll
 0005:00000dd8       __imp__ReadFile@20         10070dd8     kernel32:KERNEL32.dll
 0005:00000ddc       __imp__FindClose@4         10070ddc     kernel32:KERNEL32.dll
 0005:00000de0       __imp__FindFirstFileA@8    10070de0     kernel32:KERNEL32.dll
 0005:00000de4       __imp__GetTempFileNameA@16 10070de4     kernel32:KERNEL32.dll
 0005:00000de8       __imp__DeleteFileA@4       10070de8     kernel32:KERNEL32.dll
 0005:00000dec       __imp__SetCurrentDirectoryA@4 10070dec     kernel32:KERNEL32.dll
 0005:00000df0       __imp__GetLongPathNameA@12 10070df0     kernel32:KERNEL32.dll
 0005:00000df4       __imp__FileTimeToDosDateTime@12 10070df4     kernel32:KERNEL32.dll
 0005:00000df8       __imp__InterlockedExchange@8 10070df8     kernel32:KERNEL32.dll
 0005:00000dfc       __imp__Sleep@4             10070dfc     kernel32:KERNEL32.dll
 0005:00000e00       __imp__InterlockedCompareExchange@12 10070e00     kernel32:KERNEL32.dll
 0005:00000e04       __imp__IsDebuggerPresent@0 10070e04     kernel32:KERNEL32.dll
 0005:00000e08       __imp__WideCharToMultiByte@32 10070e08     kernel32:KERNEL32.dll
 0005:00000e0c       __imp__lstrlenA@4          10070e0c     kernel32:KERNEL32.dll
 0005:00000e10       __imp__GetProcAddress@8    10070e10     kernel32:KERNEL32.dll
 0005:00000e14       __imp__LoadLibraryA@4      10070e14     kernel32:KERNEL32.dll
 0005:00000e18       __imp__UnhandledExceptionFilter@4 10070e18     kernel32:KERNEL32.dll
 0005:00000e1c       __imp__QueryPerformanceCounter@4 10070e1c     kernel32:KERNEL32.dll
 0005:00000e20       __imp__GetTickCount@0      10070e20     kernel32:KERNEL32.dll
 0005:00000e24       __imp__GetSystemTimeAsFileTime@4 10070e24     kernel32:KERNEL32.dll
 0005:00000e28       __imp__HeapFree@12         10070e28     kernel32:KERNEL32.dll
 0005:00000e2c       __imp__HeapAlloc@12        10070e2c     kernel32:KERNEL32.dll
 0005:00000e30       __imp__GetProcessHeap@0    10070e30     kernel32:KERNEL32.dll
 0005:00000e34       __imp__GetModuleFileNameW@12 10070e34     kernel32:KERNEL32.dll
 0005:00000e38       __imp__FreeLibrary@4       10070e38     kernel32:KERNEL32.dll
 0005:00000e3c       __imp__MultiByteToWideChar@24 10070e3c     kernel32:KERNEL32.dll
 0005:00000e40       __imp__VirtualQuery@12     10070e40     kernel32:KERNEL32.dll
 0005:00000e44       __imp__FileTimeToSystemTime@8 10070e44     kernel32:KERNEL32.dll
 0005:00000e48       \177KERNEL32_NULL_THUNK_DATA 10070e48     kernel32:KERNEL32.dll
 0005:00000ea8       __imp_??1?$basic_string@_WU?$char_traits@_W@std@@V?$allocator@_W@2@@std@@QAE@XZ 10070ea8     msvcprtd:MSVCP90D.dll
 0005:00000eac       __imp_??0?$basic_string@DU?$char_traits@D@std@@V?$allocator@D@2@@std@@QAE@PBD@Z 10070eac     msvcprtd:MSVCP90D.dll
 0005:00000eb0       __imp_?_Debug_message@std@@YAXPB_W0I@Z 10070eb0     msvcprtd:MSVCP90D.dll
 0005:00000eb4       __imp_??0_Lockit@std@@QAE@H@Z 10070eb4     msvcprtd:MSVCP90D.dll
 0005:00000eb8       __imp_??1_Lockit@std@@QAE@XZ 10070eb8     msvcprtd:MSVCP90D.dll
 0005:00000ebc       __imp_?setf@ios_base@std@@QAEHHH@Z 10070ebc     msvcprtd:MSVCP90D.dll
 0005:00000ec0       __imp_??0?$basic_stringstream@DU?$char_traits@D@std@@V?$allocator@D@2@@std@@QAE@H@Z 10070ec0     msvcprtd:MSVCP90D.dll
 0005:00000ec4       __imp_??6?$basic_ostream@DU?$char_traits@D@std@@@std@@QAEAAV01@P6AAAVios_base@1@AAV21@@Z@Z 10070ec4     msvcprtd:MSVCP90D.dll
 0005:00000ec8       __imp_?c_str@?$basic_string@DU?$char_traits@D@std@@V?$allocator@D@2@@std@@QBEPBDXZ 10070ec8     msvcprtd:MSVCP90D.dll
 0005:00000ecc       __imp_?str@?$basic_stringstream@DU?$char_traits@D@std@@V?$allocator@D@2@@std@@QBE?AV?$basic_string@DU?$char_traits@D@std@@V?$allocator@D@2@@2@XZ 10070ecc     msvcprtd:MSVCP90D.dll
 0005:00000ed0       __imp_??4?$basic_string@DU?$char_traits@D@std@@V?$allocator@D@2@@std@@QAEAAV01@ABV01@@Z 10070ed0     msvcprtd:MSVCP90D.dll
 0005:00000ed4       __imp_??1?$basic_string@DU?$char_traits@D@std@@V?$allocator@D@2@@std@@QAE@XZ 10070ed4     msvcprtd:MSVCP90D.dll
 0005:00000ed8       __imp_??_D?$basic_stringstream@DU?$char_traits@D@std@@V?$allocator@D@2@@std@@QAEXXZ 10070ed8     msvcprtd:MSVCP90D.dll
 0005:00000edc       __imp_?_Orphan_all@_Container_base_secure@std@@QBEXXZ 10070edc     msvcprtd:MSVCP90D.dll
 0005:00000ee0       __imp_?_Unlock@?$basic_streambuf@DU?$char_traits@D@std@@@std@@QAEXXZ 10070ee0     msvcprtd:MSVCP90D.dll
 0005:00000ee4       __imp_?_Lock@?$basic_streambuf@DU?$char_traits@D@std@@@std@@QAEXXZ 10070ee4     msvcprtd:MSVCP90D.dll
 0005:00000ee8       __imp_?uncaught_exception@std@@YA_NXZ 10070ee8     msvcprtd:MSVCP90D.dll
 0005:00000eec       __imp_?_Osfx@?$basic_ostream@DU?$char_traits@D@std@@@std@@QAEXXZ 10070eec     msvcprtd:MSVCP90D.dll
 0005:00000ef0       __imp_?good@ios_base@std@@QBE_NXZ 10070ef0     msvcprtd:MSVCP90D.dll
 0005:00000ef4       __imp_?tie@?$basic_ios@DU?$char_traits@D@std@@@std@@QBEPAV?$basic_ostream@DU?$char_traits@D@std@@@2@XZ 10070ef4     msvcprtd:MSVCP90D.dll
 0005:00000ef8       __imp_?flush@?$basic_ostream@DU?$char_traits@D@std@@@std@@QAEAAV12@XZ 10070ef8     msvcprtd:MSVCP90D.dll
 0005:00000efc       __imp_?length@?$char_traits@D@std@@SAIPBD@Z 10070efc     msvcprtd:MSVCP90D.dll
 0005:00000f00       __imp_?width@ios_base@std@@QBEHXZ 10070f00     msvcprtd:MSVCP90D.dll
 0005:00000f04       __imp_?flags@ios_base@std@@QBEHXZ 10070f04     msvcprtd:MSVCP90D.dll
 0005:00000f08       __imp_??Y?$basic_string@DU?$char_traits@D@std@@V?$allocator@D@2@@std@@QAEAAV01@PBD@Z 10070f08     msvcprtd:MSVCP90D.dll
 0005:00000f0c       __imp_??0?$basic_string@DU?$char_traits@D@std@@V?$allocator@D@2@@std@@QAE@U_Has_debug_it@01@@Z 10070f0c     msvcprtd:MSVCP90D.dll
 0005:00000f10       __imp_?fill@?$basic_ios@DU?$char_traits@D@std@@@std@@QBEDXZ 10070f10     msvcprtd:MSVCP90D.dll
 0005:00000f14       __imp_?rdbuf@?$basic_ios@DU?$char_traits@D@std@@@std@@QBEPAV?$basic_streambuf@DU?$char_traits@D@std@@@2@XZ 10070f14     msvcprtd:MSVCP90D.dll
 0005:00000f18       __imp_?sputc@?$basic_streambuf@DU?$char_traits@D@std@@@std@@QAEHD@Z 10070f18     msvcprtd:MSVCP90D.dll
 0005:00000f1c       __imp_?eof@?$char_traits@D@std@@SAHXZ 10070f1c     msvcprtd:MSVCP90D.dll
 0005:00000f20       __imp_?eq_int_type@?$char_traits@D@std@@SA_NABH0@Z 10070f20     msvcprtd:MSVCP90D.dll
 0005:00000f24       __imp_??1_Container_base_secure@std@@QAE@XZ 10070f24     msvcprtd:MSVCP90D.dll
 0005:00000f28       __imp_??0?$basic_string@DU?$char_traits@D@std@@V?$allocator@D@2@@std@@QAE@ABV01@@Z 10070f28     msvcprtd:MSVCP90D.dll
 0005:00000f2c       __imp_?sputn@?$basic_streambuf@DU?$char_traits@D@std@@@std@@QAEHPBDH@Z 10070f2c     msvcprtd:MSVCP90D.dll
 0005:00000f30       __imp_??0_Container_base_secure@std@@QAE@XZ 10070f30     msvcprtd:MSVCP90D.dll
 0005:00000f34       __imp_?setstate@?$basic_ios@DU?$char_traits@D@std@@@std@@QAEXH_N@Z 10070f34     msvcprtd:MSVCP90D.dll
 0005:00000f38       __imp_?width@ios_base@std@@QAEHH@Z 10070f38     msvcprtd:MSVCP90D.dll
 0005:00000f3c       __imp_??6?$basic_ostream@DU?$char_traits@D@std@@@std@@QAEAAV01@H@Z 10070f3c     msvcprtd:MSVCP90D.dll
 0005:00000f40       \177MSVCP90D_NULL_THUNK_DATA 10070f40     msvcprtd:MSVCP90D.dll
 0005:00000f88       __imp___CRT_RTC_INITW      10070f88     msvcrtd:MSVCR90D.dll
 0005:00000f8c       __imp__sscanf              10070f8c     msvcrtd:MSVCR90D.dll
 0005:00000f90       __imp___purecall           10070f90     msvcrtd:MSVCR90D.dll
 0005:00000f94       __imp__memcpy_s            10070f94     msvcrtd:MSVCR90D.dll
 0005:00000f98       __imp___localtime64_s      10070f98     msvcrtd:MSVCR90D.dll
 0005:00000f9c       __imp__strftime            10070f9c     msvcrtd:MSVCR90D.dll
 0005:00000fa0       __imp___mbscmp             10070fa0     msvcrtd:MSVCR90D.dll
 0005:00000fa4       __imp__atol                10070fa4     msvcrtd:MSVCR90D.dll
 0005:00000fa8       __imp___mbsnbcmp           10070fa8     msvcrtd:MSVCR90D.dll
 0005:00000fac       __imp___mbsnbcpy           10070fac     msvcrtd:MSVCR90D.dll
 0005:00000fb0       __imp__strlen              10070fb0     msvcrtd:MSVCR90D.dll
 0005:00000fb4       __imp__strcpy              10070fb4     msvcrtd:MSVCR90D.dll
 0005:00000fb8       __imp__sprintf             10070fb8     msvcrtd:MSVCR90D.dll
 0005:00000fbc       __imp___wcsdup             10070fbc     msvcrtd:MSVCR90D.dll
 0005:00000fc0       __imp__getenv              10070fc0     msvcrtd:MSVCR90D.dll
 0005:00000fc4       __imp__free                10070fc4     msvcrtd:MSVCR90D.dll
 0005:00000fc8       __imp_?what@exception@std@@UBEPBDXZ 10070fc8     msvcrtd:MSVCR90D.dll
 0005:00000fcc       __imp___time64             10070fcc     msvcrtd:MSVCR90D.dll
 0005:00000fd0       __imp___mktime64           10070fd0     msvcrtd:MSVCR90D.dll
 0005:00000fd4       __imp___gmtime64_s         10070fd4     msvcrtd:MSVCR90D.dll
 0005:00000fd8       __imp___snprintf_s         10070fd8     msvcrtd:MSVCR90D.dll
 0005:00000fdc       __imp___errno              10070fdc     msvcrtd:MSVCR90D.dll
 0005:00000fe0       __imp___CrtDbgReport       10070fe0     msvcrtd:MSVCR90D.dll
 0005:00000fe4       __imp__wcscpy              10070fe4     msvcrtd:MSVCR90D.dll
 0005:00000fe8       __imp___vsnprintf_s        10070fe8     msvcrtd:MSVCR90D.dll
 0005:00000fec       __imp___vsnwprintf_s       10070fec     msvcrtd:MSVCR90D.dll
 0005:00000ff0       __imp___snwprintf_s        10070ff0     msvcrtd:MSVCR90D.dll
 0005:00000ff4       __imp__wcscpy_s            10070ff4     msvcrtd:MSVCR90D.dll
 0005:00000ff8       __imp__wcsncpy_s           10070ff8     msvcrtd:MSVCR90D.dll
 0005:00000ffc       __imp__strcpy_s            10070ffc     msvcrtd:MSVCR90D.dll
 0005:00001000       __imp__calloc              10071000     msvcrtd:MSVCR90D.dll
 0005:00001004       __imp__memcmp              10071004     msvcrtd:MSVCR90D.dll
 0005:00001008       __imp___wcsicmp            10071008     msvcrtd:MSVCR90D.dll
 0005:0000100c       __imp__wcslen              1007100c     msvcrtd:MSVCR90D.dll
 0005:00001010       __imp_??0exception@std@@QAE@ABQBD@Z 10071010     msvcrtd:MSVCR90D.dll
 0005:00001014       __imp__memcpy              10071014     msvcrtd:MSVCR90D.dll
 0005:00001018       __imp_??0exception@std@@QAE@XZ 10071018     msvcrtd:MSVCR90D.dll
 0005:0000101c       __imp_??1exception@std@@UAE@XZ 1007101c     msvcrtd:MSVCR90D.dll
 0005:00001020       __imp_??0exception@std@@QAE@ABV01@@Z 10071020     msvcrtd:MSVCR90D.dll
 0005:00001024       __imp___CxxThrowException@8 10071024     msvcrtd:MSVCR90D.dll
 0005:00001028       __imp___invalid_parameter  10071028     msvcrtd:MSVCR90D.dll
 0005:0000102c       __imp__memmove_s           1007102c     msvcrtd:MSVCR90D.dll
 0005:00001030       __imp___recalloc           10071030     msvcrtd:MSVCR90D.dll
 0005:00001034       __imp___CrtDbgReportW      10071034     msvcrtd:MSVCR90D.dll
 0005:00001038       __imp___getpid             10071038     msvcrtd:MSVCR90D.dll
 0005:0000103c       __imp__memset              1007103c     msvcrtd:MSVCR90D.dll
 0005:00001040       __imp___splitpath          10071040     msvcrtd:MSVCR90D.dll
 0005:00001044       __imp____CxxFrameHandler3  10071044     msvcrtd:MSVCR90D.dll
 0005:00001048       __imp____clean_type_info_names_internal 10071048     msvcrtd:MSVCR90D.dll
 0005:0000104c       __imp___crt_debugger_hook  1007104c     msvcrtd:MSVCR90D.dll
 0005:00001050       __imp_?_type_info_dtor_internal_method@type_info@@QAEXXZ 10071050     msvcrtd:MSVCR90D.dll
 0005:00001054       __imp____CppXcptFilter     10071054     msvcrtd:MSVCR90D.dll
 0005:00001058       __imp___adjust_fdiv        10071058     msvcrtd:MSVCR90D.dll
 0005:0000105c       __imp___amsg_exit          1007105c     msvcrtd:MSVCR90D.dll
 0005:00001060       __imp___initterm_e         10071060     msvcrtd:MSVCR90D.dll
 0005:00001064       __imp___initterm           10071064     msvcrtd:MSVCR90D.dll
 0005:00001068       __imp___CrtSetCheckCount   10071068     msvcrtd:MSVCR90D.dll
 0005:0000106c       __imp___encoded_null       1007106c     msvcrtd:MSVCR90D.dll
 0005:00001070       __imp___free_dbg           10071070     msvcrtd:MSVCR90D.dll
 0005:00001074       __imp___malloc_dbg         10071074     msvcrtd:MSVCR90D.dll
 0005:00001078       __imp_?terminate@@YAXXZ    10071078     msvcrtd:MSVCR90D.dll
 0005:0000107c       __imp___except_handler4_common 1007107c     msvcrtd:MSVCR90D.dll
 0005:00001080       __imp___decode_pointer     10071080     msvcrtd:MSVCR90D.dll
 0005:00001084       __imp___onexit             10071084     msvcrtd:MSVCR90D.dll
 0005:00001088       __imp___lock               10071088     msvcrtd:MSVCR90D.dll
 0005:0000108c       __imp___encode_pointer     1007108c     msvcrtd:MSVCR90D.dll
 0005:00001090       __imp____dllonexit         10071090     msvcrtd:MSVCR90D.dll
 0005:00001094       __imp___unlock             10071094     msvcrtd:MSVCR90D.dll
 0005:00001098       \177MSVCR90D_NULL_THUNK_DATA 10071098     msvcrtd:MSVCR90D.dll
 0005:000010f8       __imp__SysAllocStringLen@8 100710f8     oleaut32:OLEAUT32.dll
 0005:000010fc       __imp__SysAllocString@4    100710fc     oleaut32:OLEAUT32.dll
 0005:00001100       __imp__SysFreeString@4     10071100     oleaut32:OLEAUT32.dll
 0005:00001104       \177OLEAUT32_NULL_THUNK_DATA 10071104     oleaut32:OLEAUT32.dll
 0005:00001130       __imp__MessageBoxA@16      10071130     user32:USER32.dll
 0005:00001134       __imp__SubtractRect@12     10071134     user32:USER32.dll
 0005:00001138       __imp__UnionRect@12        10071138     user32:USER32.dll
 0005:0000113c       __imp__LoadImageA@24       1007113c     user32:USER32.dll
 0005:00001140       __imp__OffsetRect@12       10071140     user32:USER32.dll
 0005:00001144       __imp__InflateRect@12      10071144     user32:USER32.dll
 0005:00001148       __imp__EqualRect@8         10071148     user32:USER32.dll
 0005:0000114c       __imp__SetRectEmpty@4      1007114c     user32:USER32.dll
 0005:00001150       __imp__DrawIconEx@36       10071150     user32:USER32.dll
 0005:00001154       __imp__PostMessageA@16     10071154     user32:USER32.dll
 0005:00001158       __imp__DefWindowProcA@16   10071158     user32:USER32.dll
 0005:0000115c       __imp__IntersectRect@12    1007115c     user32:USER32.dll
 0005:00001160       __imp__CopyRect@8          10071160     user32:USER32.dll
 0005:00001164       __imp__IsRectEmpty@4       10071164     user32:USER32.dll
 0005:00001168       __imp__PtInRect@12         10071168     user32:USER32.dll
 0005:0000116c       __imp__SetRect@20          1007116c     user32:USER32.dll
 0005:00001170       \177USER32_NULL_THUNK_DATA 10071170     user32:USER32.dll
 0005:000011a8       __imp__InternetOpenA@20    100711a8     WinInet:WININET.dll
 0005:000011ac       __imp__HttpEndRequestA@16  100711ac     WinInet:WININET.dll
 0005:000011b0       __imp__InternetWriteFile@16 100711b0     WinInet:WININET.dll
 0005:000011b4       __imp__InternetCloseHandle@4 100711b4     WinInet:WININET.dll
 0005:000011b8       __imp__InternetAttemptConnect@4 100711b8     WinInet:WININET.dll
 0005:000011bc       __imp__InternetReadFile@16 100711bc     WinInet:WININET.dll
 0005:000011c0       __imp__HttpQueryInfoA@20   100711c0     WinInet:WININET.dll
 0005:000011c4       __imp__HttpOpenRequestA@32 100711c4     WinInet:WININET.dll
 0005:000011c8       __imp__InternetConnectA@32 100711c8     WinInet:WININET.dll
 0005:000011cc       __imp__HttpSendRequestExA@20 100711cc     WinInet:WININET.dll
 0005:000011d0       __imp__HttpAddRequestHeadersA@16 100711d0     WinInet:WININET.dll
 0005:000011d4       \177WININET_NULL_THUNK_DATA 100711d4     WinInet:WININET.dll
 0005:00001208       __imp__WSAStartup@8        10071208     wsock32:WSOCK32.dll
 0005:0000120c       __imp__gethostname@8       1007120c     wsock32:WSOCK32.dll
 0005:00001210       \177WSOCK32_NULL_THUNK_DATA 10071210     wsock32:WSOCK32.dll
 0005:0000123c       __imp__MiniDumpWriteDump@28 1007123c     dbghelp:dbghelp.dll
 0005:00001240       \177dbghelp_NULL_THUNK_DATA 10071240     dbghelp:dbghelp.dll
 0005:0000126c       __imp_?GetDlgItem@CWnd@@QBEPAV1@H@Z 1007126c     mfc90d:mfc90d.dll
 0005:00001270       __imp_?SelectObject@CDC@@UAEPAVCFont@@PAV2@@Z 10071270     mfc90d:mfc90d.dll
 0005:00001274       __imp_??0CPaintDC@@QAE@PAVCWnd@@@Z 10071274     mfc90d:mfc90d.dll
 0005:00001278       __imp_?SetIcon@CWnd@@QAEPAUHICON__@@PAU2@H@Z 10071278     mfc90d:mfc90d.dll
 0005:0000127c       __imp_?AfxGetResourceHandle@@YGPAUHINSTANCE__@@XZ 1007127c     mfc90d:mfc90d.dll
 0005:00001280       __imp_?SetWindowTextA@CWnd@@QAEXPBD@Z 10071280     mfc90d:mfc90d.dll
 0005:00001284       __imp_?IsEmpty@?$CSimpleStringT@D$00@ATL@@QBE_NXZ 10071284     mfc90d:mfc90d.dll
 0005:00001288       __imp_?OnInitDialog@CDialog@@UAEHXZ 10071288     mfc90d:mfc90d.dll
 0005:0000128c       __imp_?OnDestroy@CWnd@@IAEXXZ 1007128c     mfc90d:mfc90d.dll
 0005:00001290       __imp_?TrimRight@?$CStringT@DV?$StrTraitMFC_DLL@DV?$ChTraitsCRT@D@ATL@@@@@ATL@@QAEAAV12@XZ 10071290     mfc90d:mfc90d.dll
 0005:00001294       __imp_?TrimLeft@?$CStringT@DV?$StrTraitMFC_DLL@DV?$ChTraitsCRT@D@ATL@@@@@ATL@@QAEAAV12@XZ 10071294     mfc90d:mfc90d.dll
 0005:00001298       __imp_??1CCriticalSection@@UAE@XZ 10071298     mfc90d:mfc90d.dll
 0005:0000129c       __imp_??0CCriticalSection@@QAE@XZ 1007129c     mfc90d:mfc90d.dll
 0005:000012a0       __imp_?Lock@CCriticalSection@@QAEHXZ 100712a0     mfc90d:mfc90d.dll
 0005:000012a4       __imp_?FreeDataChain@CPlex@@QAEXXZ 100712a4     mfc90d:mfc90d.dll
 0005:000012a8       __imp_?Create@CPlex@@SGPAU1@AAPAU1@II@Z 100712a8     mfc90d:mfc90d.dll
 0005:000012ac       __imp_??1CSocket@@UAE@XZ   100712ac     mfc90d:mfc90d.dll
 0005:000012b0       __imp_??0CSocket@@QAE@XZ   100712b0     mfc90d:mfc90d.dll
 0005:000012b4       __imp_?Connect@CAsyncSocket@@QAEHPBDI@Z 100712b4     mfc90d:mfc90d.dll
 0005:000012b8       __imp_?Create@CSocket@@QAEHIHPBD@Z 100712b8     mfc90d:mfc90d.dll
 0005:000012bc       __imp_?Find@?$CStringT@DV?$StrTraitMFC_DLL@DV?$ChTraitsCRT@D@ATL@@@@@ATL@@QBEHPBDH@Z 100712bc     mfc90d:mfc90d.dll
 0005:000012c0       __imp_?CancelBlockingCall@CSocket@@QAEXXZ 100712c0     mfc90d:mfc90d.dll
 0005:000012c4       __imp_?DrawTextA@CDC@@QAEHABV?$CStringT@DV?$StrTraitMFC_DLL@DV?$ChTraitsCRT@D@ATL@@@@@ATL@@PAUtagRECT@@I@Z 100712c4     mfc90d:mfc90d.dll
 0005:000012c8       __imp_?SpanExcluding@?$CStringT@DV?$StrTraitMFC_DLL@DV?$ChTraitsCRT@D@ATL@@@@@ATL@@QBE?AV12@PBD@Z 100712c8     mfc90d:mfc90d.dll
 0005:000012cc       __imp_?Mid@?$CStringT@DV?$StrTraitMFC_DLL@DV?$ChTraitsCRT@D@ATL@@@@@ATL@@QBE?AV12@H@Z 100712cc     mfc90d:mfc90d.dll
 0005:000012d0       __imp_?ReverseFind@?$CStringT@DV?$StrTraitMFC_DLL@DV?$ChTraitsCRT@D@ATL@@@@@ATL@@QBEHD@Z 100712d0     mfc90d:mfc90d.dll
 0005:000012d4       __imp_??1CFileDialog@@UAE@XZ 100712d4     mfc90d:mfc90d.dll
 0005:000012d8       __imp_?GetPathName@CFileDialog@@QBE?AV?$CStringT@DV?$StrTraitMFC_DLL@DV?$ChTraitsCRT@D@ATL@@@@@ATL@@XZ 100712d8     mfc90d:mfc90d.dll
 0005:000012dc       __imp_?DoModal@CFileDialog@@UAEHXZ 100712dc     mfc90d:mfc90d.dll
 0005:000012e0       __imp_??0CFileDialog@@QAE@HPBD0K0PAVCWnd@@KH@Z 100712e0     mfc90d:mfc90d.dll
 0005:000012e4       __imp_?GetSafeHdc@CDC@@QBEPAUHDC__@@XZ 100712e4     mfc90d:mfc90d.dll
 0005:000012e8       __imp_??1CPaintDC@@UAE@XZ  100712e8     mfc90d:mfc90d.dll
 0005:000012ec       __imp_?UpdateData@CWnd@@QAEHH@Z 100712ec     mfc90d:mfc90d.dll
 0005:000012f0       __imp_?EndDialog@CDialog@@QAEXH@Z 100712f0     mfc90d:mfc90d.dll
 0005:000012f4       __imp_?DoDataExchange@CWnd@@MAEXPAVCDataExchange@@@Z 100712f4     mfc90d:mfc90d.dll
 0005:000012f8       __imp_?DDX_Text@@YGXPAVCDataExchange@@HAAV?$CStringT@DV?$StrTraitMFC_DLL@DV?$ChTraitsCRT@D@ATL@@@@@ATL@@@Z 100712f8     mfc90d:mfc90d.dll
 0005:000012fc       __imp_?DeleteObject@CGdiObject@@QAEHXZ 100712fc     mfc90d:mfc90d.dll
 0005:00001300       __imp_?PreInitDialog@CDialog@@MAEXXZ 10071300     mfc90d:mfc90d.dll
 0005:00001304       __imp_?OnCancel@CDialog@@MAEXXZ 10071304     mfc90d:mfc90d.dll
 0005:00001308       __imp_?OnOK@CDialog@@MAEXXZ 10071308     mfc90d:mfc90d.dll
 0005:0000130c       __imp_?OnSetFont@CDialog@@UAEXPAVCFont@@@Z 1007130c     mfc90d:mfc90d.dll
 0005:00001310       __imp_?CreateIndirect@CDialog@@UAEHPBUDLGTEMPLATE@@PAVCWnd@@PAX@Z 10071310     mfc90d:mfc90d.dll
 0005:00001314       __imp_?CreateIndirect@CDialog@@UAEHPAXPAVCWnd@@@Z 10071314     mfc90d:mfc90d.dll
 0005:00001318       __imp_?Create@CDialog@@UAEHPBDPAVCWnd@@@Z 10071318     mfc90d:mfc90d.dll
 0005:0000131c       __imp_?Create@CDialog@@UAEHIPAVCWnd@@@Z 1007131c     mfc90d:mfc90d.dll
 0005:00001320       __imp_?GetOccDialogInfo@CDialog@@MAEPAU_AFX_OCC_DIALOG_INFO@@XZ 10071320     mfc90d:mfc90d.dll
 0005:00001324       __imp_?SetOccDialogInfo@CDialog@@MAEHPAU_AFX_OCC_DIALOG_INFO@@@Z 10071324     mfc90d:mfc90d.dll
 0005:00001328       __imp_?CreateControlSite@CWnd@@MAEHPAVCOleControlContainer@@PAPAVCOleControlSite@@IABU_GUID@@@Z 10071328     mfc90d:mfc90d.dll
 0005:0000132c       __imp_?CreateControlContainer@CWnd@@MAEHPAPAVCOleControlContainer@@@Z 1007132c     mfc90d:mfc90d.dll
 0005:00001330       __imp_?IsFrameWnd@CWnd@@UBEHXZ 10071330     mfc90d:mfc90d.dll
 0005:00001334       __imp_?CheckAutoCenter@CDialog@@UAEHXZ 10071334     mfc90d:mfc90d.dll
 0005:00001338       __imp_?OnChildNotify@CWnd@@MAEHIIJPAJ@Z 10071338     mfc90d:mfc90d.dll
 0005:0000133c       __imp_?PostNcDestroy@CWnd@@MAEXXZ 1007133c     mfc90d:mfc90d.dll
 0005:00001340       __imp_?DefWindowProcA@CWnd@@MAEJIIJ@Z 10071340     mfc90d:mfc90d.dll
 0005:00001344       __imp_?OnWndMsg@CWnd@@MAEHIIJPAJ@Z 10071344     mfc90d:mfc90d.dll
 0005:00001348       __imp_?WindowProc@CWnd@@MAEJIIJ@Z 10071348     mfc90d:mfc90d.dll
 0005:0000134c       __imp_?OnAmbientProperty@CWnd@@UAEHPAVCOleControlSite@@JPAUtagVARIANT@@@Z 1007134c     mfc90d:mfc90d.dll
 0005:00001350       __imp_?PreTranslateMessage@CDialog@@UAEHPAUtagMSG@@@Z 10071350     mfc90d:mfc90d.dll
 0005:00001354       __imp_?EndModalState@CWnd@@UAEXXZ 10071354     mfc90d:mfc90d.dll
 0005:00001358       __imp_?BeginModalState@CWnd@@UAEXXZ 10071358     mfc90d:mfc90d.dll
 0005:0000135c       __imp_?GetSuperWndProcAddr@CWnd@@MAEPAP6GJPAUHWND__@@IIJ@ZXZ 1007135c     mfc90d:mfc90d.dll
 0005:00001360       __imp_?OnNotify@CWnd@@MAEHIJPAJ@Z 10071360     mfc90d:mfc90d.dll
 0005:00001364       __imp_?OnCommand@CWnd@@MAEHIJ@Z 10071364     mfc90d:mfc90d.dll
 0005:00001368       __imp_?CreateAccessibleProxy@CWnd@@UAEJIJPAJ@Z 10071368     mfc90d:mfc90d.dll
 0005:0000136c       __imp_?SetProxy@CWnd@@UAEJPAUIAccessibleProxy@@@Z 1007136c     mfc90d:mfc90d.dll
 0005:00001370       __imp_?put_accValue@CWnd@@UAEJUtagVARIANT@@PA_W@Z 10071370     mfc90d:mfc90d.dll
 0005:00001374       __imp_?put_accName@CWnd@@UAEJUtagVARIANT@@PA_W@Z 10071374     mfc90d:mfc90d.dll
 0005:00001378       __imp_?accDoDefaultAction@CWnd@@UAEJUtagVARIANT@@@Z 10071378     mfc90d:mfc90d.dll
 0005:0000137c       __imp_?accHitTest@CWnd@@UAEJJJPAUtagVARIANT@@@Z 1007137c     mfc90d:mfc90d.dll
 0005:00001380       __imp_?accNavigate@CWnd@@UAEJJUtagVARIANT@@PAU2@@Z 10071380     mfc90d:mfc90d.dll
 0005:00001384       __imp_?accLocation@CWnd@@UAEJPAJ000UtagVARIANT@@@Z 10071384     mfc90d:mfc90d.dll
 0005:00001388       __imp_?accSelect@CWnd@@UAEJJUtagVARIANT@@@Z 10071388     mfc90d:mfc90d.dll
 0005:0000138c       __imp_?get_accDefaultAction@CWnd@@UAEJUtagVARIANT@@PAPA_W@Z 1007138c     mfc90d:mfc90d.dll
 0005:00001390       __imp_?get_accSelection@CWnd@@UAEJPAUtagVARIANT@@@Z 10071390     mfc90d:mfc90d.dll
 0005:00001394       __imp_?get_accFocus@CWnd@@UAEJPAUtagVARIANT@@@Z 10071394     mfc90d:mfc90d.dll
 0005:00001398       __imp_?get_accKeyboardShortcut@CWnd@@UAEJUtagVARIANT@@PAPA_W@Z 10071398     mfc90d:mfc90d.dll
 0005:0000139c       __imp_?get_accHelpTopic@CWnd@@UAEJPAPA_WUtagVARIANT@@PAJ@Z 1007139c     mfc90d:mfc90d.dll
 0005:000013a0       __imp_?get_accHelp@CWnd@@UAEJUtagVARIANT@@PAPA_W@Z 100713a0     mfc90d:mfc90d.dll
 0005:000013a4       __imp_?get_accState@CWnd@@UAEJUtagVARIANT@@PAU2@@Z 100713a4     mfc90d:mfc90d.dll
 0005:000013a8       __imp_?get_accRole@CWnd@@UAEJUtagVARIANT@@PAU2@@Z 100713a8     mfc90d:mfc90d.dll
 0005:000013ac       __imp_?get_accDescription@CWnd@@UAEJUtagVARIANT@@PAPA_W@Z 100713ac     mfc90d:mfc90d.dll
 0005:000013b0       __imp_?get_accValue@CWnd@@UAEJUtagVARIANT@@PAPA_W@Z 100713b0     mfc90d:mfc90d.dll
 0005:000013b4       __imp_?get_accName@CWnd@@UAEJUtagVARIANT@@PAPA_W@Z 100713b4     mfc90d:mfc90d.dll
 0005:000013b8       __imp_?get_accChild@CWnd@@UAEJUtagVARIANT@@PAPAUIDispatch@@@Z 100713b8     mfc90d:mfc90d.dll
 0005:000013bc       __imp_?get_accChildCount@CWnd@@UAEJPAJ@Z 100713bc     mfc90d:mfc90d.dll
 0005:000013c0       __imp_?get_accParent@CWnd@@UAEJPAPAUIDispatch@@@Z 100713c0     mfc90d:mfc90d.dll
 0005:000013c4       __imp_?EnsureStdObj@CWnd@@UAEJXZ 100713c4     mfc90d:mfc90d.dll
 0005:000013c8       __imp_?EndModalLoop@CWnd@@UAEXH@Z 100713c8     mfc90d:mfc90d.dll
 0005:000013cc       __imp_?ContinueModal@CWnd@@UAEHXZ 100713cc     mfc90d:mfc90d.dll
 0005:000013d0       __imp_?WinHelpInternal@CWnd@@UAEXKI@Z 100713d0     mfc90d:mfc90d.dll
 0005:000013d4       __imp_?HtmlHelpA@CWnd@@UAEXKI@Z 100713d4     mfc90d:mfc90d.dll
 0005:000013d8       __imp_?WinHelpA@CWnd@@UAEXKI@Z 100713d8     mfc90d:mfc90d.dll
 0005:000013dc       __imp_?GetScrollBarCtrl@CWnd@@UBEPAVCScrollBar@@H@Z 100713dc     mfc90d:mfc90d.dll
 0005:000013e0       __imp_?OnToolHitTest@CWnd@@UBEHVCPoint@@PAUtagTOOLINFOA@@@Z 100713e0     mfc90d:mfc90d.dll
 0005:000013e4       __imp_?SetMenu@CWnd@@UAEHPAVCMenu@@@Z 100713e4     mfc90d:mfc90d.dll
 0005:000013e8       __imp_?GetMenu@CWnd@@UBEPAVCMenu@@XZ 100713e8     mfc90d:mfc90d.dll
 0005:000013ec       __imp_?GetWindowRect@CWnd@@QBEXPAUtagRECT@@@Z 100713ec     mfc90d:mfc90d.dll
 0005:000013f0       __imp_?PreCreateWindow@CWnd@@UAEHAAUtagCREATESTRUCTA@@@Z 100713f0     mfc90d:mfc90d.dll
 0005:000013f4       __imp_?DestroyWindow@CWnd@@UAEHXZ 100713f4     mfc90d:mfc90d.dll
 0005:000013f8       __imp_?CreateEx@CWnd@@UAEHKPBD0KHHHHPAUHWND__@@PAUHMENU__@@PAX@Z 100713f8     mfc90d:mfc90d.dll
 0005:000013fc       __imp_?CreateEx@CWnd@@UAEHKPBD0KABUtagRECT@@PAV1@IPAX@Z 100713fc     mfc90d:mfc90d.dll
 0005:00001400       __imp_?Create@CWnd@@UAEHPBD0KABUtagRECT@@PAV1@IPAUCCreateContext@@@Z 10071400     mfc90d:mfc90d.dll
 0005:00001404       __imp_?PreSubclassWindow@CWnd@@UAEXXZ 10071404     mfc90d:mfc90d.dll
 0005:00001408       __imp_?GetInterfaceMap@CWnd@@MBEPBUAFX_INTERFACEMAP@@XZ 10071408     mfc90d:mfc90d.dll
 0005:0000140c       __imp_?OnFinalRelease@CWnd@@UAEXXZ 1007140c     mfc90d:mfc90d.dll
 0005:00001410       __imp_?OnCmdMsg@CDialog@@UAEHIHPAXPAUAFX_CMDHANDLERINFO@@@Z 10071410     mfc90d:mfc90d.dll
 0005:00001414       __imp_?Dump@CDialog@@UBEXAAVCDumpContext@@@Z 10071414     mfc90d:mfc90d.dll
 0005:00001418       __imp_?AssertValid@CDialog@@UBEXXZ 10071418     mfc90d:mfc90d.dll
 0005:0000141c       __imp_??0CDialog@@QAE@IPAVCWnd@@@Z 1007141c     mfc90d:mfc90d.dll
 0005:00001420       __imp_??0CFont@@QAE@XZ     10071420     mfc90d:mfc90d.dll
 0005:00001424       __imp_?CreateFontA@CFont@@QAEHHHHHHEEEEEEEEPBD@Z 10071424     mfc90d:mfc90d.dll
 0005:00001428       __imp_??1CDialog@@UAE@XZ   10071428     mfc90d:mfc90d.dll
 0005:0000142c       __imp_??1CFont@@UAE@XZ     1007142c     mfc90d:mfc90d.dll
 0005:00001430       __imp_?GetThisClass@CDialog@@SGPAUCRuntimeClass@@XZ 10071430     mfc90d:mfc90d.dll
 0005:00001434       __imp_?GetThisMessageMap@CDialog@@KGPBUAFX_MSGMAP@@XZ 10071434     mfc90d:mfc90d.dll
 0005:00001438       __imp_?Write@CArchive@@QAEXPBXI@Z 10071438     mfc90d:mfc90d.dll
 0005:0000143c       __imp_?EnsureRead@CArchive@@QAEXPAXI@Z 1007143c     mfc90d:mfc90d.dll
 0005:00001440       __imp_??_U@YAPAXI@Z        10071440     mfc90d:mfc90d.dll
 0005:00001444       __imp_?AssertValid@CObject@@UBEXXZ 10071444     mfc90d:mfc90d.dll
 0005:00001448       __imp_?AfxIsValidAddress@@YGHPBXIH@Z 10071448     mfc90d:mfc90d.dll
 0005:0000144c       __imp_?Dump@CObject@@UBEXAAVCDumpContext@@@Z 1007144c     mfc90d:mfc90d.dll
 0005:00001450       __imp_??6CDumpContext@@QAEAAV0@PBD@Z 10071450     mfc90d:mfc90d.dll
 0005:00001454       __imp_??6CDumpContext@@QAEAAV0@H@Z 10071454     mfc90d:mfc90d.dll
 0005:00001458       __imp_?GetDepth@CDumpContext@@QBEHXZ 10071458     mfc90d:mfc90d.dll
 0005:0000145c       __imp_?IsStoring@CArchive@@QBEHXZ 1007145c     mfc90d:mfc90d.dll
 0005:00001460       __imp_?WriteCount@CArchive@@QAEXK@Z 10071460     mfc90d:mfc90d.dll
 0005:00001464       __imp_?ReadCount@CArchive@@QAEKXZ 10071464     mfc90d:mfc90d.dll
 0005:00001468       __imp_?AfxAssertValidObject@@YGXPBVCObject@@PBDH@Z 10071468     mfc90d:mfc90d.dll
 0005:0000146c       __imp_??1CObject@@UAE@XZ   1007146c     mfc90d:mfc90d.dll
 0005:00001470       __imp_?GetRuntimeClass@CObject@@UBEPAUCRuntimeClass@@XZ 10071470     mfc90d:mfc90d.dll
 0005:00001474       __imp_??0CObject@@IAE@XZ   10071474     mfc90d:mfc90d.dll
 0005:00001478       __imp_?StringLength@?$CSimpleStringT@D$00@ATL@@SAHPBD@Z 10071478     mfc90d:mfc90d.dll
 0005:0000147c       __imp_?Right@?$CStringT@DV?$StrTraitMFC_DLL@DV?$ChTraitsCRT@D@ATL@@@@@ATL@@QBE?AV12@H@Z 1007147c     mfc90d:mfc90d.dll
 0005:00001480       __imp_??_U@YAPAXIPBDH@Z    10071480     mfc90d:mfc90d.dll
 0005:00001484       __imp_?Find@?$CStringT@DV?$StrTraitMFC_DLL@DV?$ChTraitsCRT@D@ATL@@@@@ATL@@QBEHDH@Z 10071484     mfc90d:mfc90d.dll
 0005:00001488       __imp_?Left@?$CStringT@DV?$StrTraitMFC_DLL@DV?$ChTraitsCRT@D@ATL@@@@@ATL@@QBE?AV12@H@Z 10071488     mfc90d:mfc90d.dll
 0005:0000148c       __imp_??_V@YAXPAX@Z        1007148c     mfc90d:mfc90d.dll
 0005:00001490       __imp_?Mid@?$CStringT@DV?$StrTraitMFC_DLL@DV?$ChTraitsCRT@D@ATL@@@@@ATL@@QBE?AV12@HH@Z 10071490     mfc90d:mfc90d.dll
 0005:00001494       __imp_?GetManager@?$CStringT@DV?$StrTraitMFC_DLL@DV?$ChTraitsCRT@D@ATL@@@@@ATL@@QBEPAUIAtlStringMgr@2@XZ 10071494     mfc90d:mfc90d.dll
 0005:00001498       __imp_??0?$CStringT@DV?$StrTraitMFC_DLL@DV?$ChTraitsCRT@D@ATL@@@@@ATL@@QAE@PAUIAtlStringMgr@1@@Z 10071498     mfc90d:mfc90d.dll
 0005:0000149c       __imp_?Concatenate@?$CSimpleStringT@D$00@ATL@@KAXAAV12@PBDH1H@Z 1007149c     mfc90d:mfc90d.dll
 0005:000014a0       __imp_??0?$CStringT@DV?$StrTraitMFC_DLL@DV?$ChTraitsCRT@D@ATL@@@@@ATL@@QAE@PB_W@Z 100714a0     mfc90d:mfc90d.dll
 0005:000014a4       __imp_?AllocSysString@?$CStringT@DV?$StrTraitMFC_DLL@DV?$ChTraitsCRT@D@ATL@@@@@ATL@@QBEPA_WXZ 100714a4     mfc90d:mfc90d.dll
 0005:000014a8       __imp_?InitInstance@CWinApp@@UAEHXZ 100714a8     mfc90d:mfc90d.dll
 0005:000014ac       __imp_??1CWinApp@@UAE@XZ   100714ac     mfc90d:mfc90d.dll
 0005:000014b0       __imp_??3CObject@@SGXPAX@Z 100714b0     mfc90d:mfc90d.dll
 0005:000014b4       __imp_?LoadSysPolicies@CWinApp@@UAEHXZ 100714b4     mfc90d:mfc90d.dll
 0005:000014b8       __imp_?LoadAppLangResourceDLL@CWinApp@@UAEPAUHINSTANCE__@@XZ 100714b8     mfc90d:mfc90d.dll
 0005:000014bc       __imp_?WinHelpInternal@CWinApp@@UAEXKI@Z 100714bc     mfc90d:mfc90d.dll
 0005:000014c0       __imp_?HtmlHelpA@CWinApp@@UAEXKI@Z 100714c0     mfc90d:mfc90d.dll
 0005:000014c4       __imp_?WinHelpA@CWinApp@@UAEXKI@Z 100714c4     mfc90d:mfc90d.dll
 0005:000014c8       __imp_?OnDDECommand@CWinApp@@UAEHPAD@Z 100714c8     mfc90d:mfc90d.dll
 0005:000014cc       __imp_?DoWaitCursor@CWinApp@@UAEXH@Z 100714cc     mfc90d:mfc90d.dll
 0005:000014d0       __imp_?DoMessageBox@CWinApp@@UAEHPBDII@Z 100714d0     mfc90d:mfc90d.dll
 0005:000014d4       __imp_?SaveAllModified@CWinApp@@UAEHXZ 100714d4     mfc90d:mfc90d.dll
 0005:000014d8       __imp_?InitApplication@CWinApp@@UAEHXZ 100714d8     mfc90d:mfc90d.dll
 0005:000014dc       __imp_?AddToRecentFileList@CWinApp@@UAEXPBD@Z 100714dc     mfc90d:mfc90d.dll
 0005:000014e0       __imp_?OpenDocumentFile@CWinApp@@UAEPAVCDocument@@PBD@Z 100714e0     mfc90d:mfc90d.dll
 0005:000014e4       __imp_?Unregister@CWinApp@@UAEHXZ 100714e4     mfc90d:mfc90d.dll
 0005:000014e8       __imp_?Register@CWinApp@@UAEHXZ 100714e8     mfc90d:mfc90d.dll
 0005:000014ec       __imp_?InitLibId@CWinApp@@UAEXXZ 100714ec     mfc90d:mfc90d.dll
 0005:000014f0       __imp_?Delete@CWinThread@@UAEXXZ 100714f0     mfc90d:mfc90d.dll
 0005:000014f4       __imp_?GetMainWnd@CWinThread@@UAEPAVCWnd@@XZ 100714f4     mfc90d:mfc90d.dll
 0005:000014f8       __imp_?ProcessMessageFilter@CWinThread@@UAEHHPAUtagMSG@@@Z 100714f8     mfc90d:mfc90d.dll
 0005:000014fc       __imp_?ProcessWndProcException@CWinApp@@UAEJPAVCException@@PBUtagMSG@@@Z 100714fc     mfc90d:mfc90d.dll
 0005:00001500       __imp_?ExitInstance@CWinApp@@UAEHXZ 10071500     mfc90d:mfc90d.dll
 0005:00001504       __imp_?IsIdleMessage@CWinThread@@UAEHPAUtagMSG@@@Z 10071504     mfc90d:mfc90d.dll
 0005:00001508       __imp_?OnIdle@CWinApp@@UAEHJ@Z 10071508     mfc90d:mfc90d.dll
 0005:0000150c       __imp_?PumpMessage@CWinThread@@UAEHXZ 1007150c     mfc90d:mfc90d.dll
 0005:00001510       __imp_?PreTranslateMessage@CWinThread@@UAEHPAUtagMSG@@@Z 10071510     mfc90d:mfc90d.dll
 0005:00001514       __imp_?Run@CWinApp@@UAEHXZ 10071514     mfc90d:mfc90d.dll
 0005:00001518       __imp_?GetConnectionHook@CCmdTarget@@MAEPAUIConnectionPoint@@ABU_GUID@@@Z 10071518     mfc90d:mfc90d.dll
 0005:0000151c       __imp_?GetExtraConnectionPoints@CCmdTarget@@MAEHPAVCPtrArray@@@Z 1007151c     mfc90d:mfc90d.dll
 0005:00001520       __imp_?GetInterfaceHook@CCmdTarget@@UAEPAUIUnknown@@PBX@Z 10071520     mfc90d:mfc90d.dll
 0005:00001524       __imp_?OnCreateAggregates@CCmdTarget@@UAEHXZ 10071524     mfc90d:mfc90d.dll
 0005:00001528       __imp_?GetEventSinkMap@CCmdTarget@@MBEPBUAFX_EVENTSINKMAP@@XZ 10071528     mfc90d:mfc90d.dll
 0005:0000152c       __imp_?GetInterfaceMap@CCmdTarget@@MBEPBUAFX_INTERFACEMAP@@XZ 1007152c     mfc90d:mfc90d.dll
 0005:00001530       __imp_?GetConnectionMap@CCmdTarget@@MBEPBUAFX_CONNECTIONMAP@@XZ 10071530     mfc90d:mfc90d.dll
 0005:00001534       __imp_?GetDispatchMap@CCmdTarget@@MBEPBUAFX_DISPMAP@@XZ 10071534     mfc90d:mfc90d.dll
 0005:00001538       __imp_?GetCommandMap@CCmdTarget@@MBEPBUAFX_OLECMDMAP@@XZ 10071538     mfc90d:mfc90d.dll
 0005:0000153c       __imp_?GetTypeLib@CCmdTarget@@UAEJKPAPAUITypeLib@@@Z 1007153c     mfc90d:mfc90d.dll
 0005:00001540       __imp_?GetTypeLibCache@CCmdTarget@@UAEPAVCTypeLibCache@@XZ 10071540     mfc90d:mfc90d.dll
 0005:00001544       __imp_?GetTypeInfoCount@CCmdTarget@@UAEIXZ 10071544     mfc90d:mfc90d.dll
 0005:00001548       __imp_?GetDispatchIID@CCmdTarget@@UAEHPAU_GUID@@@Z 10071548     mfc90d:mfc90d.dll
 0005:0000154c       __imp_?IsInvokeAllowed@CCmdTarget@@UAEHJ@Z 1007154c     mfc90d:mfc90d.dll
 0005:00001550       __imp_?OnFinalRelease@CCmdTarget@@UAEXXZ 10071550     mfc90d:mfc90d.dll
 0005:00001554       __imp_?OnCmdMsg@CCmdTarget@@UAEHIHPAXPAUAFX_CMDHANDLERINFO@@@Z 10071554     mfc90d:mfc90d.dll
 0005:00001558       __imp_?Dump@CWinApp@@UBEXAAVCDumpContext@@@Z 10071558     mfc90d:mfc90d.dll
 0005:0000155c       __imp_?AssertValid@CWinApp@@UBEXXZ 1007155c     mfc90d:mfc90d.dll
 0005:00001560       __imp_?Serialize@CObject@@UAEXAAVCArchive@@@Z 10071560     mfc90d:mfc90d.dll
 0005:00001564       __imp_?GetRuntimeClass@CWinApp@@UBEPAUCRuntimeClass@@XZ 10071564     mfc90d:mfc90d.dll
 0005:00001568       __imp_??0CWinApp@@QAE@PBD@Z 10071568     mfc90d:mfc90d.dll
 0005:0000156c       __imp_?GetThisMessageMap@CWinApp@@KGPBUAFX_MSGMAP@@XZ 1007156c     mfc90d:mfc90d.dll
 0005:00001570       __imp_?ReleaseBuffer@?$CSimpleStringT@D$00@ATL@@QAEXH@Z 10071570     mfc90d:mfc90d.dll
 0005:00001574       __imp_??2@YAPAXI@Z         10071574     mfc90d:mfc90d.dll
 0005:00001578       __imp_?GetClientRect@CWnd@@QBEXPAUtagRECT@@@Z 10071578     mfc90d:mfc90d.dll
 0005:0000157c       __imp_?ScreenToClient@CWnd@@QBEXPAUtagRECT@@@Z 1007157c     mfc90d:mfc90d.dll
 0005:00001580       __imp_?FillSolidRect@CDC@@QAEXPBUtagRECT@@K@Z 10071580     mfc90d:mfc90d.dll
 0005:00001584       __imp_?SetTextColor@CDC@@UAEKK@Z 10071584     mfc90d:mfc90d.dll
 0005:00001588       __imp_?CalcWindowRect@CWnd@@UAEXPAUtagRECT@@I@Z 10071588     mfc90d:mfc90d.dll
 0005:0000158c       __imp_?AfxWndProc@@YGJPAUHWND__@@IIJ@Z 1007158c     mfc90d:mfc90d.dll
 0005:00001590       __imp_??3CObject@@SGXPAXPBDH@Z 10071590     mfc90d:mfc90d.dll
 0005:00001594       __imp_?AfxTermThread@@YGXPAUHINSTANCE__@@@Z 10071594     mfc90d:mfc90d.dll
 0005:00001598       __imp_?AfxTermExtensionModule@@YGXAAUAFX_EXTENSION_MODULE@@H@Z 10071598     mfc90d:mfc90d.dll
 0005:0000159c       __imp_?AfxUnlockTempMaps@@YGHH@Z 1007159c     mfc90d:mfc90d.dll
 0005:000015a0       __imp_?AfxLockTempMaps@@YGXXZ 100715a0     mfc90d:mfc90d.dll
 0005:000015a4       __imp_?traceAppMsg@@3VCTraceCategory@ATL@@A 100715a4     mfc90d:mfc90d.dll
 0005:000015a8       __imp_?AfxGetModuleThreadState@@YGPAVAFX_MODULE_THREAD_STATE@@XZ 100715a8     mfc90d:mfc90d.dll
 0005:000015ac       __imp_?AfxSetModuleState@@YGPAVAFX_MODULE_STATE@@PAV1@@Z 100715ac     mfc90d:mfc90d.dll
 0005:000015b0       __imp_?Delete@CException@@QAEXXZ 100715b0     mfc90d:mfc90d.dll
 0005:000015b4       __imp_?IsKindOf@CObject@@QBEHPBUCRuntimeClass@@@Z 100715b4     mfc90d:mfc90d.dll
 0005:000015b8       __imp_?GetThisClass@CMemoryException@@SGPAUCRuntimeClass@@XZ 100715b8     mfc90d:mfc90d.dll
 0005:000015bc       __imp_??0CDynLinkLibrary@@QAE@AAUAFX_EXTENSION_MODULE@@H@Z 100715bc     mfc90d:mfc90d.dll
 0005:000015c0       __imp_??2CObject@@SGPAXIPBDH@Z 100715c0     mfc90d:mfc90d.dll
 0005:000015c4       __imp_?AfxInitExtensionModule@@YGHAAUAFX_EXTENSION_MODULE@@PAUHINSTANCE__@@@Z 100715c4     mfc90d:mfc90d.dll
 0005:000015c8       __imp_?AfxGetApp@@YGPAVCWinApp@@XZ 100715c8     mfc90d:mfc90d.dll
 0005:000015cc       __imp_?AfxWinTerm@@YGXXZ   100715cc     mfc90d:mfc90d.dll
 0005:000015d0       __imp_?AfxWinInit@@YGHPAUHINSTANCE__@@0PADH@Z 100715d0     mfc90d:mfc90d.dll
 0005:000015d4       __imp_?AfxGetThreadState@@YGPAV_AFX_THREAD_STATE@@XZ 100715d4     mfc90d:mfc90d.dll
 0005:000015d8       __imp_?AfxCoreInitModule@@YGXXZ 100715d8     mfc90d:mfc90d.dll
 0005:000015dc       __imp_?AfxGetModuleState@@YGPAVAFX_MODULE_STATE@@XZ 100715dc     mfc90d:mfc90d.dll
 0005:000015e0       __imp_??0AFX_MODULE_STATE@@QAE@HP6GJPAUHWND__@@IIJ@ZKH@Z 100715e0     mfc90d:mfc90d.dll
 0005:000015e4       __imp_??3CNoTrackObject@@SGXPAX@Z 100715e4     mfc90d:mfc90d.dll
 0005:000015e8       __imp_??1AFX_MODULE_STATE@@UAE@XZ 100715e8     mfc90d:mfc90d.dll
 0005:000015ec       __imp_?_AfxSocketInit@@YGHPAUWSAData@@@Z 100715ec     mfc90d:mfc90d.dll
 0005:000015f0       __imp_?Compare@?$CStringT@DV?$StrTraitMFC_DLL@DV?$ChTraitsCRT@D@ATL@@@@@ATL@@QBEHPBD@Z 100715f0     mfc90d:mfc90d.dll
 0005:000015f4       __imp_?AfxThrowMemoryException@@YGXXZ 100715f4     mfc90d:mfc90d.dll
 0005:000015f8       __imp_?AfxThrowInvalidArgException@@YGXXZ 100715f8     mfc90d:mfc90d.dll
 0005:000015fc       __imp_??0AFX_MAINTAIN_STATE2@@QAE@PAVAFX_MODULE_STATE@@@Z 100715fc     mfc90d:mfc90d.dll
 0005:00001600       __imp_?DoModal@CDialog@@UAEHXZ 10071600     mfc90d:mfc90d.dll
 0005:00001604       __imp_??1AFX_MAINTAIN_STATE2@@QAE@XZ 10071604     mfc90d:mfc90d.dll
 0005:00001608       __imp_?LoadStringA@?$CStringT@DV?$StrTraitMFC_DLL@DV?$ChTraitsCRT@D@ATL@@@@@ATL@@QAEHI@Z 10071608     mfc90d:mfc90d.dll
 0005:0000160c       __imp_??4?$CStringT@DV?$StrTraitMFC_DLL@DV?$ChTraitsCRT@D@ATL@@@@@ATL@@QAEAAV01@ABV01@@Z 1007160c     mfc90d:mfc90d.dll
 0005:00001610       __imp_?GetBuffer@?$CSimpleStringT@D$00@ATL@@QAEPADH@Z 10071610     mfc90d:mfc90d.dll
 0005:00001614       __imp_?GetBuffer@?$CSimpleStringT@D$00@ATL@@QAEPADXZ 10071614     mfc90d:mfc90d.dll
 0005:00001618       __imp_?GetAt@?$CSimpleStringT@D$00@ATL@@QBEDH@Z 10071618     mfc90d:mfc90d.dll
 0005:0000161c       __imp_?AppendFormat@?$CStringT@DV?$StrTraitMFC_DLL@DV?$ChTraitsCRT@D@ATL@@@@@ATL@@QAAXPBDZZ 1007161c     mfc90d:mfc90d.dll
 0005:00001620       __imp_?Append@?$CSimpleStringT@D$00@ATL@@QAEXPBD@Z 10071620     mfc90d:mfc90d.dll
 0005:00001624       __imp_??0?$CStringT@DV?$StrTraitMFC_DLL@DV?$ChTraitsCRT@D@ATL@@@@@ATL@@QAE@PBD@Z 10071624     mfc90d:mfc90d.dll
 0005:00001628       __imp_??A?$CSimpleStringT@D$00@ATL@@QBEDH@Z 10071628     mfc90d:mfc90d.dll
 0005:0000162c       __imp_??Y?$CStringT@DV?$StrTraitMFC_DLL@DV?$ChTraitsCRT@D@ATL@@@@@ATL@@QAEAAV01@D@Z 1007162c     mfc90d:mfc90d.dll
 0005:00001630       __imp_?GetLength@?$CSimpleStringT@D$00@ATL@@QBEHXZ 10071630     mfc90d:mfc90d.dll
 0005:00001634       __imp_??2@YAPAXIPBDH@Z     10071634     mfc90d:mfc90d.dll
 0005:00001638       __imp_??3@YAXPAXPBDH@Z     10071638     mfc90d:mfc90d.dll
 0005:0000163c       __imp_??0?$CStringT@DV?$StrTraitMFC_DLL@DV?$ChTraitsCRT@D@ATL@@@@@ATL@@QAE@XZ 1007163c     mfc90d:mfc90d.dll
 0005:00001640       __imp_?Format@?$CStringT@DV?$StrTraitMFC_DLL@DV?$ChTraitsCRT@D@ATL@@@@@ATL@@QAAXPBDZZ 10071640     mfc90d:mfc90d.dll
 0005:00001644       __imp_??4?$CStringT@DV?$StrTraitMFC_DLL@DV?$ChTraitsCRT@D@ATL@@@@@ATL@@QAEAAV01@PBD@Z 10071644     mfc90d:mfc90d.dll
 0005:00001648       __imp_??B?$CSimpleStringT@D$00@ATL@@QBEPBDXZ 10071648     mfc90d:mfc90d.dll
 0005:0000164c       __imp_??Y?$CStringT@DV?$StrTraitMFC_DLL@DV?$ChTraitsCRT@D@ATL@@@@@ATL@@QAEAAV01@PBD@Z 1007164c     mfc90d:mfc90d.dll
 0005:00001650       __imp_??0?$CStringT@DV?$StrTraitMFC_DLL@DV?$ChTraitsCRT@D@ATL@@@@@ATL@@QAE@ABV01@@Z 10071650     mfc90d:mfc90d.dll
 0005:00001654       __imp_??0CStdioFile@@QAE@XZ 10071654     mfc90d:mfc90d.dll
 0005:00001658       __imp_?AfxAssertFailedLine@@YGHPBDH@Z 10071658     mfc90d:mfc90d.dll
 0005:0000165c       __imp_??1CStdioFile@@UAE@XZ 1007165c     mfc90d:mfc90d.dll
 0005:00001660       __imp_?Open@CStdioFile@@UAEHPBDIPAVCFileException@@@Z 10071660     mfc90d:mfc90d.dll
 0005:00001664       __imp_??Y?$CStringT@DV?$StrTraitMFC_DLL@DV?$ChTraitsCRT@D@ATL@@@@@ATL@@QAEAAV01@ABV?$CSimpleStringT@D$00@1@@Z 10071664     mfc90d:mfc90d.dll
 0005:00001668       __imp_??1?$CStringT@DV?$StrTraitMFC_DLL@DV?$ChTraitsCRT@D@ATL@@@@@ATL@@QAE@XZ 10071668     mfc90d:mfc90d.dll
 0005:0000166c       __imp_?Close@CStdioFile@@UAEXXZ 1007166c     mfc90d:mfc90d.dll
 0005:00001670       __imp_??3@YAXPAX@Z         10071670     mfc90d:mfc90d.dll
 0005:00001674       __imp_?SetBkMode@CDC@@QAEHH@Z 10071674     mfc90d:mfc90d.dll
 0005:00001678       __imp_?CompareNoCase@?$CStringT@DV?$StrTraitMFC_DLL@DV?$ChTraitsCRT@D@ATL@@@@@ATL@@QBEHPBD@Z 10071678     mfc90d:mfc90d.dll
 0005:0000167c       \177mfc90d_NULL_THUNK_DATA 1007167c     mfc90d:mfc90d.dll
 0005:00001778       __imp__CoCreateInstance@20 10071778     ole32:ole32.dll
 0005:0000177c       __imp__CoUninitialize@0    1007177c     ole32:ole32.dll
 0005:00001780       __imp__CoInitialize@4      10071780     ole32:ole32.dll
 0005:00001784       \177ole32_NULL_THUNK_DATA  10071784     ole32:ole32.dll
 0005:000017b0       __imp__zipWriteInFileInZip@12 100717b0     zipl:zipl.dll
 0005:000017b4       __imp__zipCloseFileInZip@4 100717b4     zipl:zipl.dll
 0005:000017b8       __imp__zipClose@8          100717b8     zipl:zipl.dll
 0005:000017bc       __imp__zipOpen@8           100717bc     zipl:zipl.dll
 0005:000017c0       __imp__zipOpenNewFileInZip@40 100717c0     zipl:zipl.dll
 0005:000017c4       \177zlib_NULL_THUNK_DATA   100717c4     zipl:zipl.dll

 entry point at        0002:00001068

